   1               		.file	"main.c"
   2               	__SREG__ = 0x3f
   3               	__SP_H__ = 0x3e
   4               	__SP_L__ = 0x3d
   5               	__CCP__  = 0x34
   6               	__tmp_reg__ = 0
   7               	__zero_reg__ = 1
  15               	.Ltext0:
  16               	.global	PortInit
  18               	PortInit:
  19               	.LFB8:
  20               	.LM1:
  21               	/* prologue: function */
  22               	/* frame size = 0 */
  23               	.LM2:
  24 0000 8EE0      		ldi r24,lo8(14)
  25 0002 84B9      		out 36-32,r24
  26               	.LM3:
  27 0004 88E0      		ldi r24,lo8(8)
  28 0006 85B9      		out 37-32,r24
  29               	.LM4:
  30 0008 13B8      		out 35-32,__zero_reg__
  31               	.LM5:
  32 000a 85EE      		ldi r24,lo8(-27)
  33 000c 8AB9      		out 42-32,r24
  34               	.LM6:
  35 000e 81E6      		ldi r24,lo8(97)
  36 0010 8BB9      		out 43-32,r24
  37               	.LM7:
  38 0012 19B8      		out 41-32,__zero_reg__
  39               	.LM8:
  40 0014 80E3      		ldi r24,lo8(48)
  41 0016 87B9      		out 39-32,r24
  42               	.LM9:
  43 0018 88B9      		out 40-32,r24
  44               	.LM10:
  45 001a 16B8      		out 38-32,__zero_reg__
  46               	/* epilogue start */
  47               	.LM11:
  48 001c 0895      		ret
  49               	.LFE8:
  51               	.global	ADCInit
  53               	ADCInit:
  54               	.LFB9:
  55               	.LM12:
  56               	/* prologue: function */
  57               	/* frame size = 0 */
  58               	.LM13:
  59 001e 80E6      		ldi r24,lo8(96)
  60 0020 8093 7C00 		sts 124,r24
  61               	.LM14:
  62 0024 85E8      		ldi r24,lo8(-123)
  63 0026 8093 7A00 		sts 122,r24
  64               	.LM15:
  65 002a 1092 7B00 		sts 123,__zero_reg__
  66               	.LM16:
  67 002e 88EC      		ldi r24,lo8(-56)
  68 0030 8093 7E00 		sts 126,r24
  69               	/* epilogue start */
  70               	.LM17:
  71 0034 0895      		ret
  72               	.LFE9:
  74               	.global	AdConvert
  76               	AdConvert:
  77               	.LFB10:
  78               	.LM18:
  79               	.LVL0:
  80               	/* prologue: function */
  81               	/* frame size = 0 */
  82               	.LM19:
  83 0036 9091 7C00 		lds r25,124
  84 003a 982B      		or r25,r24
  85 003c 9093 7C00 		sts 124,r25
  86               	.LM20:
  87 0040 8091 7A00 		lds r24,122
  88               	.LVL1:
  89 0044 8064      		ori r24,lo8(64)
  90 0046 8093 7A00 		sts 122,r24
  91               	.L6:
  92               	.LM21:
  93 004a 8091 7A00 		lds r24,122
  94 004e 86FD      		sbrc r24,6
  95 0050 00C0      		rjmp .L6
  96               	.LM22:
  97 0052 8091 7C00 		lds r24,124
  98 0056 807F      		andi r24,lo8(-16)
  99 0058 8093 7C00 		sts 124,r24
 100               	.LM23:
 101 005c 8091 7900 		lds r24,121
 102               	.LM24:
 103 0060 90E0      		ldi r25,lo8(0)
 104               	/* epilogue start */
 105 0062 0895      		ret
 106               	.LFE10:
 108               	.global	T1Init
 110               	T1Init:
 111               	.LFB11:
 112               	.LM25:
 113               	/* prologue: function */
 114               	/* frame size = 0 */
 115               	.LM26:
 116 0064 82EC      		ldi r24,lo8(-62)
 117 0066 8093 8100 		sts 129,r24
 118               	.LM27:
 119 006a 80E2      		ldi r24,lo8(32)
 120 006c 8093 6F00 		sts 111,r24
 121               	.LM28:
 122 0070 1092 8500 		sts (132)+1,__zero_reg__
 123 0074 1092 8400 		sts 132,__zero_reg__
 124               	/* epilogue start */
 125               	.LM29:
 126 0078 0895      		ret
 127               	.LFE11:
 129               	.global	I1Init
 131               	I1Init:
 132               	.LFB12:
 133               	.LM30:
 134               	/* prologue: function */
 135               	/* frame size = 0 */
 136               	.LM31:
 137 007a 8CE0      		ldi r24,lo8(12)
 138 007c 8093 6900 		sts 105,r24
 139               	/* epilogue start */
 140               	.LM32:
 141 0080 0895      		ret
 142               	.LFE12:
 144               	.global	PCInit
 146               	PCInit:
 147               	.LFB13:
 148               	.LM33:
 149               	/* prologue: function */
 150               	/* frame size = 0 */
 151               	.LM34:
 152 0082 E8E6      		ldi r30,lo8(104)
 153 0084 F0E0      		ldi r31,hi8(104)
 154 0086 8081      		ld r24,Z
 155 0088 8260      		ori r24,lo8(2)
 156 008a 8083      		st Z,r24
 157               	.LM35:
 158 008c ECE6      		ldi r30,lo8(108)
 159 008e F0E0      		ldi r31,hi8(108)
 160 0090 8081      		ld r24,Z
 161 0092 8760      		ori r24,lo8(7)
 162 0094 8083      		st Z,r24
 163               	/* epilogue start */
 164               	.LM36:
 165 0096 0895      		ret
 166               	.LFE13:
 168               	.global	T0Init
 170               	T0Init:
 171               	.LFB14:
 172               	.LM37:
 173               	/* prologue: function */
 174               	/* frame size = 0 */
 175               	.LM38:
 176 0098 81EA      		ldi r24,lo8(-95)
 177 009a 84BD      		out 68-32,r24
 178               	.LM39:
 179 009c 81E0      		ldi r24,lo8(1)
 180 009e 85BD      		out 69-32,r24
 181               	.LM40:
 182 00a0 18BC      		out 72-32,__zero_reg__
 183 00a2 88B5      		in r24,72-32
 184 00a4 87BD      		out 71-32,r24
 185               	/* epilogue start */
 186               	.LM41:
 187 00a6 0895      		ret
 188               	.LFE14:
 190               	.global	T2Init
 192               	T2Init:
 193               	.LFB15:
 194               	.LM42:
 195               	/* prologue: function */
 196               	/* frame size = 0 */
 197               	.LM43:
 198 00a8 81E8      		ldi r24,lo8(-127)
 199 00aa 8093 B000 		sts 176,r24
 200               	.LM44:
 201 00ae 81E0      		ldi r24,lo8(1)
 202 00b0 8093 B100 		sts 177,r24
 203               	.LM45:
 204 00b4 1092 B300 		sts 179,__zero_reg__
 205               	/* epilogue start */
 206               	.LM46:
 207 00b8 0895      		ret
 208               	.LFE15:
 210               	.global	__vector_10
 212               	__vector_10:
 213               	.LFB16:
 214               	.LM47:
 215 00ba 1F92      		push __zero_reg__
 216 00bc 0F92      		push r0
 217 00be 0FB6      		in r0,__SREG__
 218 00c0 0F92      		push r0
 219 00c2 1124      		clr __zero_reg__
 220 00c4 2F93      		push r18
 221 00c6 3F93      		push r19
 222 00c8 4F93      		push r20
 223 00ca 8F93      		push r24
 224 00cc 9F93      		push r25
 225               	/* prologue: Signal */
 226               	/* frame size = 0 */
 227               	.LM48:
 228 00ce 8091 0000 		lds r24,CaptStat
 229 00d2 8823      		tst r24
 230 00d4 01F0      		breq .L20
 231               	.LM49:
 232 00d6 1092 0000 		sts CaptStat,__zero_reg__
 233               	.LM50:
 234 00da 82E8      		ldi r24,lo8(-126)
 235 00dc 8093 8100 		sts 129,r24
 236 00e0 1092 8500 		sts (132)+1,__zero_reg__
 237 00e4 1092 8400 		sts 132,__zero_reg__
 238 00e8 1092 8700 		sts (134)+1,__zero_reg__
 239 00ec 1092 8600 		sts 134,__zero_reg__
 240 00f0 00C0      		rjmp .L25
 241               	.L20:
 242               	.LM51:
 243 00f2 41E0      		ldi r20,lo8(1)
 244 00f4 4093 0000 		sts CaptStat,r20
 245               	.LM52:
 246 00f8 82EC      		ldi r24,lo8(-62)
 247 00fa 8093 8100 		sts 129,r24
 248 00fe 1092 8500 		sts (132)+1,__zero_reg__
 249 0102 1092 8400 		sts 132,__zero_reg__
 250               	.LM53:
 251 0106 85B1      		in r24,37-32
 252 0108 94E0      		ldi r25,lo8(4)
 253 010a 8927      		eor r24,r25
 254 010c 85B9      		out 37-32,r24
 255               	.LM54:
 256 010e 8091 8600 		lds r24,134
 257 0112 9091 8700 		lds r25,(134)+1
 258 0116 9093 0000 		sts (speed)+1,r25
 259 011a 8093 0000 		sts speed,r24
 260               	.LM55:
 261 011e 8091 0000 		lds r24,times
 262 0122 8F5F      		subi r24,lo8(-(1))
 263 0124 8093 0000 		sts times,r24
 264 0128 8150      		subi r24,lo8(-(-1))
 265 012a 8330      		cpi r24,lo8(3)
 266 012c 00F0      		brlo .L22
 267               	.LM56:
 268 012e 2091 0000 		lds r18,LastValue
 269 0132 3091 0000 		lds r19,(LastValue)+1
 270 0136 8091 0000 		lds r24,VelInte
 271 013a 9091 0000 		lds r25,(VelInte)+1
 272 013e 2817      		cp r18,r24
 273 0140 3907      		cpc r19,r25
 274 0142 01F4      		brne .L23
 275               	.LM57:
 276 0144 4093 0000 		sts stall,r20
 277 0148 00C0      		rjmp .L24
 278               	.L23:
 279               	.LM58:
 280 014a 8091 0000 		lds r24,VelInte
 281 014e 9091 0000 		lds r25,(VelInte)+1
 282 0152 9093 0000 		sts (LastValue)+1,r25
 283 0156 8093 0000 		sts LastValue,r24
 284               	.LM59:
 285 015a 1092 0000 		sts stall,__zero_reg__
 286               	.L24:
 287               	.LM60:
 288 015e 1092 0000 		sts times,__zero_reg__
 289               	.L22:
 290               	.LM61:
 291 0162 81E0      		ldi r24,lo8(1)
 292 0164 8093 0000 		sts update,r24
 293               	.L25:
 294               	/* epilogue start */
 295               	.LM62:
 296 0168 9F91      		pop r25
 297 016a 8F91      		pop r24
 298 016c 4F91      		pop r20
 299 016e 3F91      		pop r19
 300 0170 2F91      		pop r18
 301 0172 0F90      		pop r0
 302 0174 0FBE      		out __SREG__,r0
 303 0176 0F90      		pop r0
 304 0178 1F90      		pop __zero_reg__
 305 017a 1895      		reti
 306               	.LFE16:
 309               	commut:
 310               	.LFB19:
 311               	.LM63:
 312               	.LVL2:
 313               	/* prologue: function */
 314               	/* frame size = 0 */
 315 017c 982F      		mov r25,r24
 316               	.LM64:
 317 017e 8091 0000 		lds r24,dir
 318               	.LVL3:
 319 0182 8823      		tst r24
 320 0184 01F4      		brne .+2
 321 0186 00C0      		rjmp .L27
 322               	.LM65:
 323 0188 9330      		cpi r25,lo8(3)
 324 018a 01F4      		brne .+2
 325 018c 00C0      		rjmp .L31
 326 018e 9430      		cpi r25,lo8(4)
 327 0190 00F4      		brsh .L35
 328 0192 9130      		cpi r25,lo8(1)
 329 0194 01F4      		brne .+2
 330 0196 00C0      		rjmp .L29
 331 0198 9230      		cpi r25,lo8(2)
 332 019a 01F0      		breq .+2
 333 019c 00C0      		rjmp .L43
 334 019e 00C0      		rjmp .L53
 335               	.L35:
 336 01a0 9530      		cpi r25,lo8(5)
 337 01a2 01F0      		breq .L33
 338 01a4 9530      		cpi r25,lo8(5)
 339 01a6 00F0      		brlo .L32
 340 01a8 9630      		cpi r25,lo8(6)
 341 01aa 01F0      		breq .+2
 342 01ac 00C0      		rjmp .L43
 343 01ae 00C0      		rjmp .L54
 344               	.L33:
 345               	.LM66:
 346 01b0 84B5      		in r24,68-32
 347 01b2 8F70      		andi r24,lo8(15)
 348 01b4 84BD      		out 68-32,r24
 349 01b6 8091 B000 		lds r24,176
 350 01ba 8F73      		andi r24,lo8(63)
 351 01bc 8093 B000 		sts 176,r24
 352 01c0 589A      		sbi 43-32,0
 353 01c2 88B1      		in r24,40-32
 354 01c4 8063      		ori r24,lo8(48)
 355 01c6 88B9      		out 40-32,r24
 356               	/* #APP */
 357               	 ;  237 "main.c" 1
 358 01c8 0000      		nop
 359               	 ;  0 "" 2
 360               	/* #NOAPP */
 361 01ca 00C0      		rjmp .L52
 362               	.L32:
 363               	.LM67:
 364 01cc 84B5      		in r24,68-32
 365 01ce 8F70      		andi r24,lo8(15)
 366 01d0 84BD      		out 68-32,r24
 367 01d2 8091 B000 		lds r24,176
 368 01d6 8F73      		andi r24,lo8(63)
 369 01d8 8093 B000 		sts 176,r24
 370 01dc 589A      		sbi 43-32,0
 371 01de 88B1      		in r24,40-32
 372 01e0 8063      		ori r24,lo8(48)
 373 01e2 88B9      		out 40-32,r24
 374               	/* #APP */
 375               	 ;  240 "main.c" 1
 376 01e4 0000      		nop
 377               	 ;  0 "" 2
 378               	/* #NOAPP */
 379 01e6 00C0      		rjmp .L51
 380               	.L54:
 381               	.LM68:
 382 01e8 84B5      		in r24,68-32
 383 01ea 8F70      		andi r24,lo8(15)
 384 01ec 84BD      		out 68-32,r24
 385 01ee 8091 B000 		lds r24,176
 386 01f2 8F73      		andi r24,lo8(63)
 387 01f4 8093 B000 		sts 176,r24
 388 01f8 589A      		sbi 43-32,0
 389 01fa 88B1      		in r24,40-32
 390 01fc 8063      		ori r24,lo8(48)
 391 01fe 88B9      		out 40-32,r24
 392               	/* #APP */
 393               	 ;  243 "main.c" 1
 394 0200 0000      		nop
 395               	 ;  0 "" 2
 396               	/* #NOAPP */
 397 0202 5898      		cbi 43-32,0
 398 0204 00C0      		rjmp .L45
 399               	.L53:
 400               	.LM69:
 401 0206 84B5      		in r24,68-32
 402 0208 8F70      		andi r24,lo8(15)
 403 020a 84BD      		out 68-32,r24
 404 020c 8091 B000 		lds r24,176
 405 0210 8F73      		andi r24,lo8(63)
 406 0212 8093 B000 		sts 176,r24
 407 0216 589A      		sbi 43-32,0
 408 0218 88B1      		in r24,40-32
 409 021a 8063      		ori r24,lo8(48)
 410 021c 88B9      		out 40-32,r24
 411               	/* #APP */
 412               	 ;  246 "main.c" 1
 413 021e 0000      		nop
 414               	 ;  0 "" 2
 415               	/* #NOAPP */
 416 0220 00C0      		rjmp .L47
 417               	.L31:
 418               	.LM70:
 419 0222 84B5      		in r24,68-32
 420 0224 8F70      		andi r24,lo8(15)
 421 0226 84BD      		out 68-32,r24
 422 0228 8091 B000 		lds r24,176
 423 022c 8F73      		andi r24,lo8(63)
 424 022e 8093 B000 		sts 176,r24
 425 0232 589A      		sbi 43-32,0
 426 0234 88B1      		in r24,40-32
 427 0236 8063      		ori r24,lo8(48)
 428 0238 88B9      		out 40-32,r24
 429               	/* #APP */
 430               	 ;  249 "main.c" 1
 431 023a 0000      		nop
 432               	 ;  0 "" 2
 433               	/* #NOAPP */
 434 023c 00C0      		rjmp .L49
 435               	.L29:
 436               	.LM71:
 437 023e 84B5      		in r24,68-32
 438 0240 8F70      		andi r24,lo8(15)
 439 0242 84BD      		out 68-32,r24
 440 0244 8091 B000 		lds r24,176
 441 0248 8F73      		andi r24,lo8(63)
 442 024a 8093 B000 		sts 176,r24
 443 024e 589A      		sbi 43-32,0
 444 0250 88B1      		in r24,40-32
 445 0252 8063      		ori r24,lo8(48)
 446 0254 88B9      		out 40-32,r24
 447               	/* #APP */
 448               	 ;  252 "main.c" 1
 449 0256 0000      		nop
 450               	 ;  0 "" 2
 451               	/* #NOAPP */
 452               	.L50:
 453 0258 4498      		cbi 40-32,4
 454               	.L48:
 455 025a 84B5      		in r24,68-32
 456 025c 8068      		ori r24,lo8(-128)
 457 025e 00C0      		rjmp .L46
 458               	.L27:
 459               	.LM72:
 460 0260 9330      		cpi r25,lo8(3)
 461 0262 01F4      		brne .+2
 462 0264 00C0      		rjmp .L38
 463 0266 9430      		cpi r25,lo8(4)
 464 0268 00F4      		brsh .L42
 465 026a 9130      		cpi r25,lo8(1)
 466 026c 01F4      		brne .+2
 467 026e 00C0      		rjmp .L36
 468 0270 9230      		cpi r25,lo8(2)
 469 0272 01F0      		breq .+2
 470 0274 00C0      		rjmp .L43
 471 0276 00C0      		rjmp .L55
 472               	.L42:
 473 0278 9530      		cpi r25,lo8(5)
 474 027a 01F0      		breq .L40
 475 027c 9530      		cpi r25,lo8(5)
 476 027e 00F0      		brlo .L39
 477 0280 9630      		cpi r25,lo8(6)
 478 0282 01F0      		breq .+2
 479 0284 00C0      		rjmp .L43
 480 0286 00C0      		rjmp .L56
 481               	.L40:
 482               	.LM73:
 483 0288 84B5      		in r24,68-32
 484 028a 8F70      		andi r24,lo8(15)
 485 028c 84BD      		out 68-32,r24
 486 028e 8091 B000 		lds r24,176
 487 0292 8F73      		andi r24,lo8(63)
 488 0294 8093 B000 		sts 176,r24
 489 0298 589A      		sbi 43-32,0
 490 029a 88B1      		in r24,40-32
 491 029c 8063      		ori r24,lo8(48)
 492 029e 88B9      		out 40-32,r24
 493               	/* #APP */
 494               	 ;  263 "main.c" 1
 495 02a0 0000      		nop
 496               	 ;  0 "" 2
 497               	/* #NOAPP */
 498               	.L47:
 499 02a2 4598      		cbi 40-32,5
 500               	.L45:
 501 02a4 8091 B000 		lds r24,176
 502 02a8 8068      		ori r24,lo8(-128)
 503 02aa 8093 B000 		sts 176,r24
 504 02ae 0895      		ret
 505               	.L39:
 506               	.LM74:
 507 02b0 84B5      		in r24,68-32
 508 02b2 8F70      		andi r24,lo8(15)
 509 02b4 84BD      		out 68-32,r24
 510 02b6 8091 B000 		lds r24,176
 511 02ba 8F73      		andi r24,lo8(63)
 512 02bc 8093 B000 		sts 176,r24
 513 02c0 589A      		sbi 43-32,0
 514 02c2 88B1      		in r24,40-32
 515 02c4 8063      		ori r24,lo8(48)
 516 02c6 88B9      		out 40-32,r24
 517               	/* #APP */
 518               	 ;  266 "main.c" 1
 519 02c8 0000      		nop
 520               	 ;  0 "" 2
 521               	/* #NOAPP */
 522               	.L49:
 523 02ca 4598      		cbi 40-32,5
 524 02cc 00C0      		rjmp .L48
 525               	.L56:
 526               	.LM75:
 527 02ce 84B5      		in r24,68-32
 528 02d0 8F70      		andi r24,lo8(15)
 529 02d2 84BD      		out 68-32,r24
 530 02d4 8091 B000 		lds r24,176
 531 02d8 8F73      		andi r24,lo8(63)
 532 02da 8093 B000 		sts 176,r24
 533 02de 589A      		sbi 43-32,0
 534 02e0 88B1      		in r24,40-32
 535 02e2 8063      		ori r24,lo8(48)
 536 02e4 88B9      		out 40-32,r24
 537               	/* #APP */
 538               	 ;  269 "main.c" 1
 539 02e6 0000      		nop
 540               	 ;  0 "" 2
 541               	/* #NOAPP */
 542 02e8 00C0      		rjmp .L50
 543               	.L55:
 544               	.LM76:
 545 02ea 84B5      		in r24,68-32
 546 02ec 8F70      		andi r24,lo8(15)
 547 02ee 84BD      		out 68-32,r24
 548 02f0 8091 B000 		lds r24,176
 549 02f4 8F73      		andi r24,lo8(63)
 550 02f6 8093 B000 		sts 176,r24
 551 02fa 589A      		sbi 43-32,0
 552 02fc 88B1      		in r24,40-32
 553 02fe 8063      		ori r24,lo8(48)
 554 0300 88B9      		out 40-32,r24
 555               	/* #APP */
 556               	 ;  272 "main.c" 1
 557 0302 0000      		nop
 558               	 ;  0 "" 2
 559               	/* #NOAPP */
 560               	.L52:
 561 0304 4498      		cbi 40-32,4
 562 0306 00C0      		rjmp .L44
 563               	.L38:
 564               	.LM77:
 565 0308 84B5      		in r24,68-32
 566 030a 8F70      		andi r24,lo8(15)
 567 030c 84BD      		out 68-32,r24
 568 030e 8091 B000 		lds r24,176
 569 0312 8F73      		andi r24,lo8(63)
 570 0314 8093 B000 		sts 176,r24
 571 0318 589A      		sbi 43-32,0
 572 031a 88B1      		in r24,40-32
 573 031c 8063      		ori r24,lo8(48)
 574 031e 88B9      		out 40-32,r24
 575               	/* #APP */
 576               	 ;  275 "main.c" 1
 577 0320 0000      		nop
 578               	 ;  0 "" 2
 579               	/* #NOAPP */
 580               	.L51:
 581 0322 5898      		cbi 43-32,0
 582               	.L44:
 583 0324 84B5      		in r24,68-32
 584 0326 8062      		ori r24,lo8(32)
 585               	.L46:
 586 0328 84BD      		out 68-32,r24
 587 032a 0895      		ret
 588               	.L36:
 589               	.LM78:
 590 032c 84B5      		in r24,68-32
 591 032e 8F70      		andi r24,lo8(15)
 592 0330 84BD      		out 68-32,r24
 593 0332 8091 B000 		lds r24,176
 594 0336 8F73      		andi r24,lo8(63)
 595 0338 8093 B000 		sts 176,r24
 596 033c 589A      		sbi 43-32,0
 597 033e 88B1      		in r24,40-32
 598 0340 8063      		ori r24,lo8(48)
 599 0342 88B9      		out 40-32,r24
 600               	/* #APP */
 601               	 ;  278 "main.c" 1
 602 0344 0000      		nop
 603               	 ;  0 "" 2
 604               	/* #NOAPP */
 605 0346 5898      		cbi 43-32,0
 606 0348 8091 B000 		lds r24,176
 607 034c 8068      		ori r24,lo8(-128)
 608 034e 8093 B000 		sts 176,r24
 609               	.L43:
 610 0352 0895      		ret
 611               	.LFE19:
 613               	.global	StartFun
 615               	StartFun:
 616               	.LFB18:
 617               	.LM79:
 618               	.LVL4:
 619 0354 0F93      		push r16
 620 0356 1F93      		push r17
 621 0358 CF93      		push r28
 622 035a DF93      		push r29
 623               	/* prologue: function */
 624               	/* frame size = 0 */
 625               	.LM80:
 626 035c 1092 0000 		sts (LastValue)+1,__zero_reg__
 627 0360 1092 0000 		sts LastValue,__zero_reg__
 628 0364 8091 0000 		lds r24,LastValue
 629 0368 9091 0000 		lds r25,(LastValue)+1
 630               	.LVL5:
 631 036c 9093 0000 		sts (VelInte)+1,r25
 632 0370 8093 0000 		sts VelInte,r24
 633               	.LM81:
 634 0374 1092 0000 		sts times,__zero_reg__
 635 0378 1092 0000 		sts stall,__zero_reg__
 636               	.LM82:
 637 037c 8091 6800 		lds r24,104
 638 0380 8C7F      		andi r24,lo8(-4)
 639 0382 8093 6800 		sts 104,r24
 640               	.LM83:
 641 0386 84B5      		in r24,68-32
 642 0388 8F70      		andi r24,lo8(15)
 643 038a 84BD      		out 68-32,r24
 644 038c 8091 B000 		lds r24,176
 645 0390 8F73      		andi r24,lo8(63)
 646 0392 8093 B000 		sts 176,r24
 647 0396 589A      		sbi 43-32,0
 648 0398 88B1      		in r24,40-32
 649 039a 8063      		ori r24,lo8(48)
 650 039c 88B9      		out 40-32,r24
 651               	.LM84:
 652 039e 80EE      		ldi r24,lo8(-32)
 653 03a0 8093 B300 		sts 179,r24
 654 03a4 8091 B300 		lds r24,179
 655 03a8 88BD      		out 72-32,r24
 656 03aa 88B5      		in r24,72-32
 657 03ac 87BD      		out 71-32,r24
 658               	.LM85:
 659 03ae 8091 6800 		lds r24,104
 660 03b2 8260      		ori r24,lo8(2)
 661 03b4 8093 6800 		sts 104,r24
 662 03b8 00EE      		ldi r16,lo8(-32)
 663               	.LVL6:
 664               	.LBB58:
 665               	.LBB59:
 666               	.LBB60:
 667               	.LBB61:
 668               	.LM86:
 669 03ba C0E2      		ldi r28,lo8(20000)
 670 03bc DEE4      		ldi r29,hi8(20000)
 671               	.LVL7:
 672               	.L62:
 673               	.LBE61:
 674               	.LBE60:
 675               	.LBE59:
 676               	.LBE58:
 677               	.LM87:
 678 03be 10E0      		ldi r17,lo8(0)
 679               	.LVL8:
 680               	.L59:
 681               	.LM88:
 682 03c0 8091 0000 		lds r24,VelInte
 683 03c4 9091 0000 		lds r25,(VelInte)+1
 684               	.LVL9:
 685 03c8 0597      		sbiw r24,5
 686 03ca 00F4      		brsh .L58
 687               	.LM89:
 688 03cc 812F      		mov r24,r17
 689 03ce 00D0      		rcall commut
 690               	.LBB65:
 691               	.LBB64:
 692               	.LBB63:
 693               	.LBB62:
 694               	.LM90:
 695 03d0 CE01      		movw r24,r28
 696               	.LVL10:
 697               	/* #APP */
 698               	 ;  105 "c:/winavr-20100110/lib/gcc/../../avr/include/util/delay_basic.h" 1
 699 03d2 0197      		1: sbiw r24,1
 700 03d4 01F4      		brne 1b
 701               	 ;  0 "" 2
 702               	/* #NOAPP */
 703               	.LBE62:
 704               	.LBE63:
 705               	.LBE64:
 706               	.LBE65:
 707               	.LM91:
 708 03d6 1F5F      		subi r17,lo8(-(1))
 709 03d8 1830      		cpi r17,lo8(8)
 710 03da 01F4      		brne .L59
 711               	.LM92:
 712 03dc 0850      		subi r16,lo8(-(-8))
 713               	.LM93:
 714 03de 0031      		cpi r16,lo8(16)
 715 03e0 01F4      		brne .L60
 716               	.LM94:
 717 03e2 8FEF      		ldi r24,lo8(-1)
 718               	.LVL11:
 719 03e4 8093 B300 		sts 179,r24
 720 03e8 8091 B300 		lds r24,179
 721 03ec 88BD      		out 72-32,r24
 722 03ee 88B5      		in r24,72-32
 723 03f0 87BD      		out 71-32,r24
 724 03f2 20E0      		ldi r18,lo8(0)
 725 03f4 30E0      		ldi r19,hi8(0)
 726 03f6 00C0      		rjmp .L61
 727               	.LVL12:
 728               	.L60:
 729               	.LM95:
 730 03f8 0093 B300 		sts 179,r16
 731 03fc 8091 B300 		lds r24,179
 732               	.LVL13:
 733 0400 88BD      		out 72-32,r24
 734 0402 88B5      		in r24,72-32
 735 0404 87BD      		out 71-32,r24
 736               	.LM96:
 737 0406 8BB1      		in r24,43-32
 738 0408 8058      		subi r24,lo8(-(-128))
 739 040a 8BB9      		out 43-32,r24
 740 040c 00C0      		rjmp .L62
 741               	.L58:
 742               	.LM97:
 743 040e 21E0      		ldi r18,lo8(1)
 744 0410 30E0      		ldi r19,hi8(1)
 745               	.L61:
 746               	.LM98:
 747 0412 C901      		movw r24,r18
 748               	/* epilogue start */
 749 0414 DF91      		pop r29
 750 0416 CF91      		pop r28
 751 0418 1F91      		pop r17
 752               	.LVL14:
 753 041a 0F91      		pop r16
 754               	.LVL15:
 755 041c 0895      		ret
 756               	.LFE18:
 758               	.global	__vector_4
 760               	__vector_4:
 761               	.LFB17:
 762               	.LM99:
 763 041e 1F92      		push __zero_reg__
 764 0420 0F92      		push r0
 765 0422 0FB6      		in r0,__SREG__
 766 0424 0F92      		push r0
 767 0426 1124      		clr __zero_reg__
 768 0428 2F93      		push r18
 769 042a 3F93      		push r19
 770 042c 4F93      		push r20
 771 042e 5F93      		push r21
 772 0430 6F93      		push r22
 773 0432 7F93      		push r23
 774 0434 8F93      		push r24
 775 0436 9F93      		push r25
 776 0438 AF93      		push r26
 777 043a BF93      		push r27
 778 043c EF93      		push r30
 779 043e FF93      		push r31
 780               	/* prologue: Signal */
 781               	/* frame size = 0 */
 782               	.LM100:
 783 0440 8091 0000 		lds r24,VelInte
 784 0444 9091 0000 		lds r25,(VelInte)+1
 785 0448 0196      		adiw r24,1
 786 044a 9093 0000 		sts (VelInte)+1,r25
 787 044e 8093 0000 		sts VelInte,r24
 788               	.LM101:
 789 0452 86B1      		in r24,38-32
 790 0454 8770      		andi r24,lo8(7)
 791 0456 00D0      		rcall commut
 792               	/* epilogue start */
 793               	.LM102:
 794 0458 FF91      		pop r31
 795 045a EF91      		pop r30
 796 045c BF91      		pop r27
 797 045e AF91      		pop r26
 798 0460 9F91      		pop r25
 799 0462 8F91      		pop r24
 800 0464 7F91      		pop r23
 801 0466 6F91      		pop r22
 802 0468 5F91      		pop r21
 803 046a 4F91      		pop r20
 804 046c 3F91      		pop r19
 805 046e 2F91      		pop r18
 806 0470 0F90      		pop r0
 807 0472 0FBE      		out __SREG__,r0
 808 0474 0F90      		pop r0
 809 0476 1F90      		pop __zero_reg__
 810 0478 1895      		reti
 811               	.LFE17:
 813               	.global	main
 815               	main:
 816               	.LFB20:
 817               	.LM103:
 818 047a 5F92      		push r5
 819 047c 6F92      		push r6
 820 047e 7F92      		push r7
 821 0480 8F92      		push r8
 822 0482 9F92      		push r9
 823 0484 AF92      		push r10
 824 0486 BF92      		push r11
 825 0488 CF92      		push r12
 826 048a DF92      		push r13
 827 048c EF92      		push r14
 828 048e FF92      		push r15
 829 0490 0F93      		push r16
 830 0492 1F93      		push r17
 831 0494 CF93      		push r28
 832 0496 DF93      		push r29
 833               	/* prologue: function */
 834               	/* frame size = 0 */
 835               	.LM104:
 836               	/* #APP */
 837               	 ;  297 "main.c" 1
 838 0498 F894      		cli
 839               	 ;  0 "" 2
 840               	.LM105:
 841               	/* #NOAPP */
 842 049a 00D0      		rcall PortInit
 843               	.LM106:
 844 049c 299A      		sbi 37-32,1
 845 049e 88E8      		ldi r24,lo8(5000)
 846 04a0 93E1      		ldi r25,hi8(5000)
 847               	.LVL16:
 848               	.LBB66:
 849               	.LBB67:
 850               	.LBB68:
 851               	.LBB69:
 852               	.LM107:
 853 04a2 28EC      		ldi r18,lo8(200)
 854 04a4 30E0      		ldi r19,hi8(200)
 855               	.L68:
 856 04a6 F901      		movw r30,r18
 857               	.LVL17:
 858               	/* #APP */
 859               	 ;  105 "c:/winavr-20100110/lib/gcc/../../avr/include/util/delay_basic.h" 1
 860 04a8 3197      		1: sbiw r30,1
 861 04aa 01F4      		brne 1b
 862               	 ;  0 "" 2
 863               	/* #NOAPP */
 864               	.LBE69:
 865               	.LBE68:
 866               	.LM108:
 867 04ac 0197      		sbiw r24,1
 868               	.LM109:
 869 04ae 01F4      		brne .L68
 870               	.LBE67:
 871               	.LBE66:
 872               	.LM110:
 873 04b0 2998      		cbi 37-32,1
 874               	.LM111:
 875 04b2 8BB1      		in r24,43-32
 876               	.LVL18:
 877 04b4 8058      		subi r24,lo8(-(-128))
 878 04b6 8BB9      		out 43-32,r24
 879 04b8 88E8      		ldi r24,lo8(5000)
 880 04ba 93E1      		ldi r25,hi8(5000)
 881               	.LVL19:
 882               	.LBB70:
 883               	.LBB71:
 884               	.LBB72:
 885               	.LBB73:
 886               	.LM112:
 887 04bc 28EC      		ldi r18,lo8(200)
 888 04be 30E0      		ldi r19,hi8(200)
 889               	.L69:
 890 04c0 F901      		movw r30,r18
 891               	.LVL20:
 892               	/* #APP */
 893               	 ;  105 "c:/winavr-20100110/lib/gcc/../../avr/include/util/delay_basic.h" 1
 894 04c2 3197      		1: sbiw r30,1
 895 04c4 01F4      		brne 1b
 896               	 ;  0 "" 2
 897               	/* #NOAPP */
 898               	.LBE73:
 899               	.LBE72:
 900               	.LM113:
 901 04c6 0197      		sbiw r24,1
 902               	.LM114:
 903 04c8 01F4      		brne .L69
 904               	.LBE71:
 905               	.LBE70:
 906               	.LM115:
 907 04ca 299A      		sbi 37-32,1
 908               	.LM116:
 909 04cc 8BB1      		in r24,43-32
 910               	.LVL21:
 911 04ce 8058      		subi r24,lo8(-(-128))
 912 04d0 8BB9      		out 43-32,r24
 913 04d2 88E8      		ldi r24,lo8(5000)
 914 04d4 93E1      		ldi r25,hi8(5000)
 915               	.LVL22:
 916               	.LBB74:
 917               	.LBB75:
 918               	.LBB76:
 919               	.LBB77:
 920               	.LM117:
 921 04d6 28EC      		ldi r18,lo8(200)
 922 04d8 30E0      		ldi r19,hi8(200)
 923               	.L70:
 924 04da F901      		movw r30,r18
 925               	.LVL23:
 926               	/* #APP */
 927               	 ;  105 "c:/winavr-20100110/lib/gcc/../../avr/include/util/delay_basic.h" 1
 928 04dc 3197      		1: sbiw r30,1
 929 04de 01F4      		brne 1b
 930               	 ;  0 "" 2
 931               	/* #NOAPP */
 932               	.LBE77:
 933               	.LBE76:
 934               	.LM118:
 935 04e0 0197      		sbiw r24,1
 936               	.LM119:
 937 04e2 01F4      		brne .L70
 938               	.LBE75:
 939               	.LBE74:
 940               	.LM120:
 941 04e4 8BB1      		in r24,43-32
 942               	.LVL24:
 943 04e6 8058      		subi r24,lo8(-(-128))
 944 04e8 8BB9      		out 43-32,r24
 945               	.LM121:
 946 04ea 2998      		cbi 37-32,1
 947               	.LBB78:
 948               	.LBB79:
 949               	.LM122:
 950 04ec 8091 6800 		lds r24,104
 951 04f0 8260      		ori r24,lo8(2)
 952 04f2 8093 6800 		sts 104,r24
 953               	.LM123:
 954 04f6 8091 6C00 		lds r24,108
 955 04fa 8760      		ori r24,lo8(7)
 956 04fc 8093 6C00 		sts 108,r24
 957               	.LBE79:
 958               	.LBE78:
 959               	.LBB80:
 960               	.LBB81:
 961               	.LM124:
 962 0500 81EA      		ldi r24,lo8(-95)
 963 0502 84BD      		out 68-32,r24
 964               	.LM125:
 965 0504 91E0      		ldi r25,lo8(1)
 966 0506 95BD      		out 69-32,r25
 967               	.LM126:
 968 0508 18BC      		out 72-32,__zero_reg__
 969 050a 88B5      		in r24,72-32
 970 050c 87BD      		out 71-32,r24
 971               	.LBE81:
 972               	.LBE80:
 973               	.LBB82:
 974               	.LBB83:
 975               	.LM127:
 976 050e 81E8      		ldi r24,lo8(-127)
 977 0510 8093 B000 		sts 176,r24
 978               	.LM128:
 979 0514 9093 B100 		sts 177,r25
 980               	.LM129:
 981 0518 1092 B300 		sts 179,__zero_reg__
 982               	.LBE83:
 983               	.LBE82:
 984               	.LBB84:
 985               	.LBB85:
 986               	.LM130:
 987 051c 82EC      		ldi r24,lo8(-62)
 988 051e 8093 8100 		sts 129,r24
 989               	.LM131:
 990 0522 80E2      		ldi r24,lo8(32)
 991 0524 8093 6F00 		sts 111,r24
 992               	.LM132:
 993 0528 1092 8500 		sts (132)+1,__zero_reg__
 994 052c 1092 8400 		sts 132,__zero_reg__
 995               	.LBE85:
 996               	.LBE84:
 997               	.LBB86:
 998               	.LBB87:
 999               	.LM133:
 1000 0530 80E6      		ldi r24,lo8(96)
 1001 0532 8093 7C00 		sts 124,r24
 1002               	.LM134:
 1003 0536 85E8      		ldi r24,lo8(-123)
 1004 0538 8093 7A00 		sts 122,r24
 1005               	.LM135:
 1006 053c 1092 7B00 		sts 123,__zero_reg__
 1007               	.LM136:
 1008 0540 88EC      		ldi r24,lo8(-56)
 1009 0542 8093 7E00 		sts 126,r24
 1010               	.LBE87:
 1011               	.LBE86:
 1012               	.LM137:
 1013               	/* #APP */
 1014               	 ;  314 "main.c" 1
 1015 0546 7894      		sei
 1016               	 ;  0 "" 2
 1017               	/* #NOAPP */
 1018 0548 EE24      		clr r14
 1019 054a FF24      		clr r15
 1020               	.LVL25:
 1021 054c 9924      		clr r9
 1022               	.LVL26:
 1023 054e CC24      		clr r12
 1024 0550 DD24      		clr r13
 1025               	.LVL27:
 1026 0552 00E0      		ldi r16,lo8(0)
 1027 0554 10E0      		ldi r17,hi8(0)
 1028               	.LVL28:
 1029               	.LM138:
 1030 0556 8824      		clr r8
 1031 0558 8A94      		dec r8
 1032               	.LBB88:
 1033               	.LBB89:
 1034               	.LBB90:
 1035               	.LBB91:
 1036               	.LM139:
 1037 055a 7AE1      		ldi r23,lo8(26)
 1038 055c 572E      		mov r5,r23
 1039               	.LBE91:
 1040               	.LBE90:
 1041               	.LBE89:
 1042               	.LBE88:
 1043               	.LM140:
 1044 055e 62E0      		ldi r22,lo8(2)
 1045 0560 762E      		mov r7,r22
 1046               	.LM141:
 1047 0562 5FEF      		ldi r21,lo8(255)
 1048 0564 A52E      		mov r10,r21
 1049 0566 B12C      		mov r11,__zero_reg__
 1050               	.LM142:
 1051 0568 6624      		clr r6
 1052 056a 6394      		inc r6
 1053               	.L97:
 1054               	.LM143:
 1055 056c 8BB1      		in r24,43-32
 1056 056e 8058      		subi r24,lo8(-(-128))
 1057 0570 8BB9      		out 43-32,r24
 1058               	.LM144:
 1059 0572 8091 0000 		lds r24,update
 1060 0576 8823      		tst r24
 1061 0578 01F4      		brne .+2
 1062 057a 00C0      		rjmp .L71
 1063 057c 9920      		tst r9
 1064 057e 01F4      		brne .+2
 1065 0580 00C0      		rjmp .L71
 1066               	.LM145:
 1067 0582 1092 0000 		sts update,__zero_reg__
 1068               	.LM146:
 1069 0586 2091 0000 		lds r18,speed
 1070 058a 3091 0000 		lds r19,(speed)+1
 1071 058e 2C5D      		subi r18,lo8(-(-1500))
 1072 0590 3540      		sbci r19,hi8(-(-1500))
 1073               	.LM147:
 1074 0592 37FD      		sbrc r19,7
 1075 0594 00C0      		rjmp .L72
 1076               	.LM148:
 1077 0596 C901      		movw r24,r18
 1078 0598 9595      		asr r25
 1079 059a 8795      		ror r24
 1080 059c 9093 0000 		sts (value)+1,r25
 1081 05a0 8093 0000 		sts value,r24
 1082               	.LM149:
 1083 05a4 8F3F      		cpi r24,255
 1084 05a6 9105      		cpc r25,__zero_reg__
 1085 05a8 01F0      		breq .L73
 1086 05aa 04F0      		brlt .L73
 1087               	.LM150:
 1088 05ac B092 0000 		sts (value)+1,r11
 1089 05b0 A092 0000 		sts value,r10
 1090               	.L73:
 1091               	.LM151:
 1092 05b4 8091 0000 		lds r24,value
 1093 05b8 9091 0000 		lds r25,(value)+1
 1094 05bc F501      		movw r30,r10
 1095               	.LVL29:
 1096 05be E81B      		sub r30,r24
 1097 05c0 F90B      		sbc r31,r25
 1098 05c2 E050      		subi r30,lo8(-(porp))
 1099 05c4 F040      		sbci r31,hi8(-(porp))
 1100 05c6 8081      		ld r24,Z
 1101 05c8 8093 0000 		sts value,r24
 1102 05cc 1092 0000 		sts value+1,__zero_reg__
 1103               	.LM152:
 1104 05d0 1092 0000 		sts dir,__zero_reg__
 1105 05d4 00C0      		rjmp .L74
 1106               	.LVL30:
 1107               	.L72:
 1108               	.LM153:
 1109 05d6 8827      		clr r24
 1110 05d8 9927      		clr r25
 1111 05da 821B      		sub r24,r18
 1112 05dc 930B      		sbc r25,r19
 1113 05de 9595      		asr r25
 1114 05e0 8795      		ror r24
 1115 05e2 9093 0000 		sts (value)+1,r25
 1116 05e6 8093 0000 		sts value,r24
 1117               	.LM154:
 1118 05ea 8F3F      		cpi r24,255
 1119 05ec 9105      		cpc r25,__zero_reg__
 1120 05ee 01F0      		breq .L75
 1121 05f0 04F0      		brlt .L75
 1122               	.LM155:
 1123 05f2 B092 0000 		sts (value)+1,r11
 1124 05f6 A092 0000 		sts value,r10
 1125               	.L75:
 1126               	.LM156:
 1127 05fa 8091 0000 		lds r24,value
 1128 05fe 9091 0000 		lds r25,(value)+1
 1129 0602 F501      		movw r30,r10
 1130               	.LVL31:
 1131 0604 E81B      		sub r30,r24
 1132 0606 F90B      		sbc r31,r25
 1133 0608 E050      		subi r30,lo8(-(porp))
 1134 060a F040      		sbci r31,hi8(-(porp))
 1135 060c 8081      		ld r24,Z
 1136 060e 8093 0000 		sts value,r24
 1137 0612 1092 0000 		sts value+1,__zero_reg__
 1138               	.LM157:
 1139 0616 6092 0000 		sts dir,r6
 1140               	.L74:
 1141               	.LM158:
 1142 061a 8091 0000 		lds r24,stall
 1143 061e 8823      		tst r24
 1144 0620 01F0      		breq .L76
 1145 0622 8091 0000 		lds r24,value
 1146 0626 9091 0000 		lds r25,(value)+1
 1147 062a 8A3F      		cpi r24,250
 1148 062c 9105      		cpc r25,__zero_reg__
 1149 062e 04F4      		brge .L76
 1150               	.LM159:
 1151 0630 85B1      		in r24,37-32
 1152 0632 8725      		eor r24,r7
 1153 0634 85B9      		out 37-32,r24
 1154 0636 00C0      		rjmp .L77
 1155               	.L78:
 1156               	.LM160:
 1157 0638 8BB1      		in r24,43-32
 1158 063a 8058      		subi r24,lo8(-(-128))
 1159 063c 8BB9      		out 43-32,r24
 1160               	.L77:
 1161               	.LM161:
 1162 063e 80E8      		ldi r24,lo8(-128)
 1163 0640 00D0      		rcall StartFun
 1164 0642 892B      		or r24,r25
 1165 0644 01F0      		breq .L78
 1166               	.LM162:
 1167 0646 8091 0000 		lds r24,value
 1168 064a 8093 B300 		sts 179,r24
 1169 064e 8091 B300 		lds r24,179
 1170 0652 88BD      		out 72-32,r24
 1171 0654 88B5      		in r24,72-32
 1172 0656 87BD      		out 71-32,r24
 1173               	.L76:
 1174               	.LM163:
 1175 0658 8091 0000 		lds r24,value
 1176 065c 9091 0000 		lds r25,(value)+1
 1177 0660 8B3F      		cpi r24,251
 1178 0662 9105      		cpc r25,__zero_reg__
 1179 0664 04F0      		brlt .L79
 1180               	.LM164:
 1181 0666 8092 B300 		sts 179,r8
 1182 066a 8091 B300 		lds r24,179
 1183 066e 88BD      		out 72-32,r24
 1184 0670 88B5      		in r24,72-32
 1185 0672 87BD      		out 71-32,r24
 1186               	.LBB95:
 1187               	.LBB94:
 1188               	.LBB93:
 1189               	.LBB92:
 1190               	.LM165:
 1191 0674 852D      		mov r24,r5
 1192               	.LVL32:
 1193               	/* #APP */
 1194               	 ;  83 "c:/winavr-20100110/lib/gcc/../../avr/include/util/delay_basic.h" 1
 1195 0676 8A95      		1: dec r24
 1196 0678 01F4      		brne 1b
 1197               	 ;  0 "" 2
 1198               	/* #NOAPP */
 1199               	.LBE92:
 1200               	.LBE93:
 1201               	.LBE94:
 1202               	.LBE95:
 1203               	.LM166:
 1204 067a 5898      		cbi 43-32,0
 1205 067c 88B1      		in r24,40-32
 1206               	.LVL33:
 1207 067e 8F7C      		andi r24,lo8(-49)
 1208 0680 88B9      		out 40-32,r24
 1209 0682 00C0      		rjmp .L98
 1210               	.L79:
 1211               	.LM167:
 1212 0684 8093 B300 		sts 179,r24
 1213 0688 8091 B300 		lds r24,179
 1214 068c 88BD      		out 72-32,r24
 1215 068e 88B5      		in r24,72-32
 1216 0690 87BD      		out 71-32,r24
 1217               	.L98:
 1218 0692 EE24      		clr r14
 1219 0694 FF24      		clr r15
 1220               	.LVL34:
 1221               	.L71:
 1222               	.LM168:
 1223 0696 83E0      		ldi r24,lo8(3)
 1224 0698 00D0      		rcall AdConvert
 1225               	.LVL35:
 1226 069a EC01      		movw r28,r24
 1227               	.LM169:
 1228 069c 86E0      		ldi r24,lo8(6)
 1229 069e 00D0      		rcall AdConvert
 1230               	.LM170:
 1231 06a0 880F      		lsl r24
 1232 06a2 991F      		rol r25
 1233 06a4 880F      		lsl r24
 1234 06a6 991F      		rol r25
 1235 06a8 815D      		subi r24,lo8(721)
 1236 06aa 9240      		sbci r25,hi8(721)
 1237 06ac 00F0      		brlo .L80
 1238               	.LM171:
 1239 06ae 82E0      		ldi r24,hi8(651)
 1240 06b0 0B38      		cpi r16,lo8(651)
 1241 06b2 1807      		cpc r17,r24
 1242 06b4 04F4      		brge .L81
 1243 06b6 0F5F      		subi r16,lo8(-(1))
 1244 06b8 1F4F      		sbci r17,hi8(-(1))
 1245 06ba 00C0      		rjmp .L82
 1246               	.L81:
 1247               	.LM172:
 1248 06bc 299A      		sbi 37-32,1
 1249               	.LM173:
 1250 06be 8092 B300 		sts 179,r8
 1251 06c2 8091 B300 		lds r24,179
 1252 06c6 88BD      		out 72-32,r24
 1253 06c8 88B5      		in r24,72-32
 1254 06ca 87BD      		out 71-32,r24
 1255 06cc 9924      		clr r9
 1256 06ce 00C0      		rjmp .L99
 1257               	.L80:
 1258               	.LM174:
 1259 06d0 21EB      		ldi r18,hi8(-20000)
 1260 06d2 003E      		cpi r16,lo8(-20000)
 1261 06d4 1207      		cpc r17,r18
 1262 06d6 04F0      		brlt .L83
 1263 06d8 0150      		subi r16,lo8(-(-1))
 1264 06da 1040      		sbci r17,hi8(-(-1))
 1265 06dc 00C0      		rjmp .L82
 1266               	.L83:
 1267               	.LM175:
 1268 06de 2998      		cbi 37-32,1
 1269 06e0 9924      		clr r9
 1270 06e2 9394      		inc r9
 1271               	.L99:
 1272 06e4 00E0      		ldi r16,lo8(0)
 1273 06e6 10E0      		ldi r17,hi8(0)
 1274               	.L82:
 1275               	.LM176:
 1276 06e8 CC0F      		lsl r28
 1277 06ea DD1F      		rol r29
 1278 06ec CC0F      		lsl r28
 1279 06ee DD1F      		rol r29
 1280 06f0 CA56      		subi r28,lo8(362)
 1281 06f2 D140      		sbci r29,hi8(362)
 1282 06f4 00F4      		brsh .L84
 1283               	.LM177:
 1284 06f6 21ED      		ldi r18,lo8(2001)
 1285 06f8 C216      		cp r12,r18
 1286 06fa 27E0      		ldi r18,hi8(2001)
 1287 06fc D206      		cpc r13,r18
 1288 06fe 04F4      		brge .L85
 1289 0700 0894      		sec
 1290 0702 C11C      		adc r12,__zero_reg__
 1291 0704 D11C      		adc r13,__zero_reg__
 1292 0706 00C0      		rjmp .L86
 1293               	.L85:
 1294               	.LM178:
 1295 0708 5A9A      		sbi 43-32,2
 1296 070a 00C0      		rjmp .L100
 1297               	.L84:
 1298               	.LM179:
 1299 070c 80E3      		ldi r24,lo8(-2000)
 1300 070e C816      		cp r12,r24
 1301 0710 88EF      		ldi r24,hi8(-2000)
 1302 0712 D806      		cpc r13,r24
 1303 0714 04F0      		brlt .L87
 1304 0716 0894      		sec
 1305 0718 C108      		sbc r12,__zero_reg__
 1306 071a D108      		sbc r13,__zero_reg__
 1307 071c 00C0      		rjmp .L86
 1308               	.L87:
 1309               	.LM180:
 1310 071e 5A98      		cbi 43-32,2
 1311               	.L100:
 1312 0720 CC24      		clr r12
 1313 0722 DD24      		clr r13
 1314               	.L86:
 1315               	.LM181:
 1316 0724 21EE      		ldi r18,lo8(12001)
 1317 0726 E216      		cp r14,r18
 1318 0728 2EE2      		ldi r18,hi8(12001)
 1319 072a F206      		cpc r15,r18
 1320 072c 00F4      		brsh .L88
 1321 072e 0894      		sec
 1322 0730 E11C      		adc r14,__zero_reg__
 1323 0732 F11C      		adc r15,__zero_reg__
 1324 0734 00C0      		rjmp .L89
 1325               	.L88:
 1326               	.LM182:
 1327 0736 8092 B300 		sts 179,r8
 1328 073a 8091 B300 		lds r24,179
 1329 073e 88BD      		out 72-32,r24
 1330 0740 88B5      		in r24,72-32
 1331 0742 87BD      		out 71-32,r24
 1332               	.LM183:
 1333 0744 2A98      		cbi 37-32,2
 1334 0746 EE24      		clr r14
 1335 0748 FF24      		clr r15
 1336               	.L89:
 1337               	.LM184:
 1338 074a 8091 0000 		lds r24,VelInte
 1339 074e 9091 0000 		lds r25,(VelInte)+1
 1340 0752 8155      		subi r24,lo8(-15535)
 1341 0754 934C      		sbci r25,hi8(-15535)
 1342 0756 00F4      		brsh .+2
 1343 0758 00C0      		rjmp .L97
 1344               	.LM185:
 1345 075a 1092 0000 		sts (VelInte)+1,__zero_reg__
 1346 075e 1092 0000 		sts VelInte,__zero_reg__
 1347 0762 00C0      		rjmp .L97
 1348               	.LFE20:
 1350               	.global	StateLoTable
 1351               	.global	StateLoTable
 1352               		.section .bss
 1355               	StateLoTable:
 1356 0000 0000 0000 		.skip 16,0
 1356      0000 0000 
 1356      0000 0000 
 1356      0000 0000 
 1357               	.global	VelInte
 1358               	.global	VelInte
 1361               	VelInte:
 1362 0010 0000      		.skip 2,0
 1363               	.global	LastValue
 1364               	.global	LastValue
 1367               	LastValue:
 1368 0012 0000      		.skip 2,0
 1369               	.global	stall
 1370               		.data
 1373               	stall:
 1374 0000 01        		.byte	1
 1375               	.global	speed
 1376               	.global	speed
 1377               		.section .bss
 1380               	speed:
 1381 0014 0000      		.skip 2,0
 1382               	.global	dir
 1383               	.global	dir
 1386               	dir:
 1387 0016 00        		.skip 1,0
 1388               	.global	CaptStat
 1389               		.data
 1392               	CaptStat:
 1393 0001 01        		.byte	1
 1394               	.global	value
 1395               	.global	value
 1396               		.section .bss
 1399               	value:
 1400 0017 0000      		.skip 2,0
 1401               	.global	porp
 1402               		.data
 1405               	porp:
 1406 0002 01        		.byte	1
 1407 0003 02        		.byte	2
 1408 0004 03        		.byte	3
 1409 0005 04        		.byte	4
 1410 0006 05        		.byte	5
 1411 0007 06        		.byte	6
 1412 0008 06        		.byte	6
 1413 0009 07        		.byte	7
 1414 000a 07        		.byte	7
 1415 000b 08        		.byte	8
 1416 000c 08        		.byte	8
 1417 000d 09        		.byte	9
 1418 000e 09        		.byte	9
 1419 000f 0A        		.byte	10
 1420 0010 0A        		.byte	10
 1421 0011 0B        		.byte	11
 1422 0012 0C        		.byte	12
 1423 0013 0D        		.byte	13
 1424 0014 0E        		.byte	14
 1425 0015 0F        		.byte	15
 1426 0016 10        		.byte	16
 1427 0017 11        		.byte	17
 1428 0018 12        		.byte	18
 1429 0019 13        		.byte	19
 1430 001a 14        		.byte	20
 1431 001b 15        		.byte	21
 1432 001c 16        		.byte	22
 1433 001d 17        		.byte	23
 1434 001e 18        		.byte	24
 1435 001f 19        		.byte	25
 1436 0020 1A        		.byte	26
 1437 0021 1B        		.byte	27
 1438 0022 1C        		.byte	28
 1439 0023 1D        		.byte	29
 1440 0024 1E        		.byte	30
 1441 0025 1F        		.byte	31
 1442 0026 20        		.byte	32
 1443 0027 21        		.byte	33
 1444 0028 22        		.byte	34
 1445 0029 23        		.byte	35
 1446 002a 24        		.byte	36
 1447 002b 25        		.byte	37
 1448 002c 26        		.byte	38
 1449 002d 27        		.byte	39
 1450 002e 28        		.byte	40
 1451 002f 29        		.byte	41
 1452 0030 2A        		.byte	42
 1453 0031 2B        		.byte	43
 1454 0032 2C        		.byte	44
 1455 0033 2D        		.byte	45
 1456 0034 2E        		.byte	46
 1457 0035 2F        		.byte	47
 1458 0036 30        		.byte	48
 1459 0037 31        		.byte	49
 1460 0038 32        		.byte	50
 1461 0039 33        		.byte	51
 1462 003a 34        		.byte	52
 1463 003b 35        		.byte	53
 1464 003c 36        		.byte	54
 1465 003d 37        		.byte	55
 1466 003e 38        		.byte	56
 1467 003f 39        		.byte	57
 1468 0040 3A        		.byte	58
 1469 0041 3B        		.byte	59
 1470 0042 3C        		.byte	60
 1471 0043 3D        		.byte	61
 1472 0044 3E        		.byte	62
 1473 0045 3F        		.byte	63
 1474 0046 40        		.byte	64
 1475 0047 41        		.byte	65
 1476 0048 42        		.byte	66
 1477 0049 43        		.byte	67
 1478 004a 44        		.byte	68
 1479 004b 45        		.byte	69
 1480 004c 46        		.byte	70
 1481 004d 47        		.byte	71
 1482 004e 48        		.byte	72
 1483 004f 49        		.byte	73
 1484 0050 4A        		.byte	74
 1485 0051 4B        		.byte	75
 1486 0052 4C        		.byte	76
 1487 0053 4D        		.byte	77
 1488 0054 4E        		.byte	78
 1489 0055 4F        		.byte	79
 1490 0056 50        		.byte	80
 1491 0057 51        		.byte	81
 1492 0058 52        		.byte	82
 1493 0059 53        		.byte	83
 1494 005a 54        		.byte	84
 1495 005b 55        		.byte	85
 1496 005c 56        		.byte	86
 1497 005d 57        		.byte	87
 1498 005e 58        		.byte	88
 1499 005f 59        		.byte	89
 1500 0060 5A        		.byte	90
 1501 0061 5B        		.byte	91
 1502 0062 5C        		.byte	92
 1503 0063 5D        		.byte	93
 1504 0064 5E        		.byte	94
 1505 0065 5F        		.byte	95
 1506 0066 60        		.byte	96
 1507 0067 61        		.byte	97
 1508 0068 62        		.byte	98
 1509 0069 63        		.byte	99
 1510 006a 64        		.byte	100
 1511 006b 65        		.byte	101
 1512 006c 66        		.byte	102
 1513 006d 67        		.byte	103
 1514 006e 68        		.byte	104
 1515 006f 69        		.byte	105
 1516 0070 6A        		.byte	106
 1517 0071 6B        		.byte	107
 1518 0072 6C        		.byte	108
 1519 0073 6D        		.byte	109
 1520 0074 6E        		.byte	110
 1521 0075 6F        		.byte	111
 1522 0076 70        		.byte	112
 1523 0077 71        		.byte	113
 1524 0078 72        		.byte	114
 1525 0079 73        		.byte	115
 1526 007a 74        		.byte	116
 1527 007b 75        		.byte	117
 1528 007c 76        		.byte	118
 1529 007d 77        		.byte	119
 1530 007e 78        		.byte	120
 1531 007f 79        		.byte	121
 1532 0080 7A        		.byte	122
 1533 0081 7B        		.byte	123
 1534 0082 7C        		.byte	124
 1535 0083 7D        		.byte	125
 1536 0084 7E        		.byte	126
 1537 0085 7F        		.byte	127
 1538 0086 80        		.byte	-128
 1539 0087 81        		.byte	-127
 1540 0088 82        		.byte	-126
 1541 0089 83        		.byte	-125
 1542 008a 84        		.byte	-124
 1543 008b 85        		.byte	-123
 1544 008c 86        		.byte	-122
 1545 008d 87        		.byte	-121
 1546 008e 88        		.byte	-120
 1547 008f 89        		.byte	-119
 1548 0090 8A        		.byte	-118
 1549 0091 8B        		.byte	-117
 1550 0092 8C        		.byte	-116
 1551 0093 8D        		.byte	-115
 1552 0094 8E        		.byte	-114
 1553 0095 8F        		.byte	-113
 1554 0096 90        		.byte	-112
 1555 0097 91        		.byte	-111
 1556 0098 92        		.byte	-110
 1557 0099 93        		.byte	-109
 1558 009a 94        		.byte	-108
 1559 009b 95        		.byte	-107
 1560 009c 96        		.byte	-106
 1561 009d 97        		.byte	-105
 1562 009e 98        		.byte	-104
 1563 009f 99        		.byte	-103
 1564 00a0 9A        		.byte	-102
 1565 00a1 9B        		.byte	-101
 1566 00a2 9C        		.byte	-100
 1567 00a3 9D        		.byte	-99
 1568 00a4 9E        		.byte	-98
 1569 00a5 9F        		.byte	-97
 1570 00a6 A0        		.byte	-96
 1571 00a7 A1        		.byte	-95
 1572 00a8 A2        		.byte	-94
 1573 00a9 A3        		.byte	-93
 1574 00aa A4        		.byte	-92
 1575 00ab A5        		.byte	-91
 1576 00ac A6        		.byte	-90
 1577 00ad A7        		.byte	-89
 1578 00ae A8        		.byte	-88
 1579 00af A9        		.byte	-87
 1580 00b0 AA        		.byte	-86
 1581 00b1 AB        		.byte	-85
 1582 00b2 AC        		.byte	-84
 1583 00b3 AD        		.byte	-83
 1584 00b4 AE        		.byte	-82
 1585 00b5 AF        		.byte	-81
 1586 00b6 B0        		.byte	-80
 1587 00b7 B1        		.byte	-79
 1588 00b8 B2        		.byte	-78
 1589 00b9 B3        		.byte	-77
 1590 00ba B4        		.byte	-76
 1591 00bb B5        		.byte	-75
 1592 00bc B6        		.byte	-74
 1593 00bd B7        		.byte	-73
 1594 00be B8        		.byte	-72
 1595 00bf B9        		.byte	-71
 1596 00c0 BA        		.byte	-70
 1597 00c1 BB        		.byte	-69
 1598 00c2 BC        		.byte	-68
 1599 00c3 BD        		.byte	-67
 1600 00c4 BE        		.byte	-66
 1601 00c5 BF        		.byte	-65
 1602 00c6 C0        		.byte	-64
 1603 00c7 C1        		.byte	-63
 1604 00c8 C2        		.byte	-62
 1605 00c9 C3        		.byte	-61
 1606 00ca C4        		.byte	-60
 1607 00cb C5        		.byte	-59
 1608 00cc C6        		.byte	-58
 1609 00cd C7        		.byte	-57
 1610 00ce C8        		.byte	-56
 1611 00cf C9        		.byte	-55
 1612 00d0 CA        		.byte	-54
 1613 00d1 CB        		.byte	-53
 1614 00d2 CC        		.byte	-52
 1615 00d3 CD        		.byte	-51
 1616 00d4 CE        		.byte	-50
 1617 00d5 CF        		.byte	-49
 1618 00d6 D0        		.byte	-48
 1619 00d7 D1        		.byte	-47
 1620 00d8 D2        		.byte	-46
 1621 00d9 D3        		.byte	-45
 1622 00da D4        		.byte	-44
 1623 00db D5        		.byte	-43
 1624 00dc D6        		.byte	-42
 1625 00dd D7        		.byte	-41
 1626 00de D8        		.byte	-40
 1627 00df D9        		.byte	-39
 1628 00e0 DA        		.byte	-38
 1629 00e1 DB        		.byte	-37
 1630 00e2 DC        		.byte	-36
 1631 00e3 DD        		.byte	-35
 1632 00e4 DE        		.byte	-34
 1633 00e5 DF        		.byte	-33
 1634 00e6 E0        		.byte	-32
 1635 00e7 E1        		.byte	-31
 1636 00e8 E2        		.byte	-30
 1637 00e9 E3        		.byte	-29
 1638 00ea E4        		.byte	-28
 1639 00eb E5        		.byte	-27
 1640 00ec E6        		.byte	-26
 1641 00ed E7        		.byte	-25
 1642 00ee E8        		.byte	-24
 1643 00ef E9        		.byte	-23
 1644 00f0 EA        		.byte	-22
 1645 00f1 EB        		.byte	-21
 1646 00f2 EC        		.byte	-20
 1647 00f3 ED        		.byte	-19
 1648 00f4 EF        		.byte	-17
 1649 00f5 F3        		.byte	-13
 1650 00f6 F7        		.byte	-9
 1651 00f7 FB        		.byte	-5
 1652 00f8 FF        		.byte	-1
 1653 00f9 FF        		.byte	-1
 1654 00fa FF        		.byte	-1
 1655 00fb FF        		.byte	-1
 1656 00fc FF        		.byte	-1
 1657 00fd FF        		.byte	-1
 1658 00fe FF        		.byte	-1
 1659 00ff FF        		.byte	-1
 1660 0100 FF        		.byte	-1
 1661 0101 FF        		.byte	-1
 1662               	.global	update
 1663               	.global	update
 1664               		.section .bss
 1667               	update:
 1668 0019 00        		.skip 1,0
 1669               	.global	times
 1670               	.global	times
 1673               	times:
 1674 001a 00        		.skip 1,0
 1795               	.Letext0:
DEFINED SYMBOLS
                            *ABS*:00000000 main.c
C:\Users\ADMINI~1\AppData\Local\Temp/ccCwbWMn.s:2      *ABS*:0000003f __SREG__
C:\Users\ADMINI~1\AppData\Local\Temp/ccCwbWMn.s:3      *ABS*:0000003e __SP_H__
C:\Users\ADMINI~1\AppData\Local\Temp/ccCwbWMn.s:4      *ABS*:0000003d __SP_L__
C:\Users\ADMINI~1\AppData\Local\Temp/ccCwbWMn.s:5      *ABS*:00000034 __CCP__
C:\Users\ADMINI~1\AppData\Local\Temp/ccCwbWMn.s:6      *ABS*:00000000 __tmp_reg__
C:\Users\ADMINI~1\AppData\Local\Temp/ccCwbWMn.s:7      *ABS*:00000001 __zero_reg__
C:\Users\ADMINI~1\AppData\Local\Temp/ccCwbWMn.s:18     .text:00000000 PortInit
C:\Users\ADMINI~1\AppData\Local\Temp/ccCwbWMn.s:53     .text:0000001e ADCInit
C:\Users\ADMINI~1\AppData\Local\Temp/ccCwbWMn.s:76     .text:00000036 AdConvert
C:\Users\ADMINI~1\AppData\Local\Temp/ccCwbWMn.s:110    .text:00000064 T1Init
C:\Users\ADMINI~1\AppData\Local\Temp/ccCwbWMn.s:131    .text:0000007a I1Init
C:\Users\ADMINI~1\AppData\Local\Temp/ccCwbWMn.s:146    .text:00000082 PCInit
C:\Users\ADMINI~1\AppData\Local\Temp/ccCwbWMn.s:170    .text:00000098 T0Init
C:\Users\ADMINI~1\AppData\Local\Temp/ccCwbWMn.s:192    .text:000000a8 T2Init
C:\Users\ADMINI~1\AppData\Local\Temp/ccCwbWMn.s:212    .text:000000ba __vector_10
C:\Users\ADMINI~1\AppData\Local\Temp/ccCwbWMn.s:1392   .data:00000001 CaptStat
C:\Users\ADMINI~1\AppData\Local\Temp/ccCwbWMn.s:1380   .bss:00000014 speed
C:\Users\ADMINI~1\AppData\Local\Temp/ccCwbWMn.s:1673   .bss:0000001a times
C:\Users\ADMINI~1\AppData\Local\Temp/ccCwbWMn.s:1367   .bss:00000012 LastValue
C:\Users\ADMINI~1\AppData\Local\Temp/ccCwbWMn.s:1361   .bss:00000010 VelInte
C:\Users\ADMINI~1\AppData\Local\Temp/ccCwbWMn.s:1373   .data:00000000 stall
C:\Users\ADMINI~1\AppData\Local\Temp/ccCwbWMn.s:1667   .bss:00000019 update
C:\Users\ADMINI~1\AppData\Local\Temp/ccCwbWMn.s:309    .text:0000017c commut
C:\Users\ADMINI~1\AppData\Local\Temp/ccCwbWMn.s:1386   .bss:00000016 dir
C:\Users\ADMINI~1\AppData\Local\Temp/ccCwbWMn.s:615    .text:00000354 StartFun
C:\Users\ADMINI~1\AppData\Local\Temp/ccCwbWMn.s:760    .text:0000041e __vector_4
C:\Users\ADMINI~1\AppData\Local\Temp/ccCwbWMn.s:815    .text:0000047a main
C:\Users\ADMINI~1\AppData\Local\Temp/ccCwbWMn.s:1399   .bss:00000017 value
C:\Users\ADMINI~1\AppData\Local\Temp/ccCwbWMn.s:1405   .data:00000002 porp
C:\Users\ADMINI~1\AppData\Local\Temp/ccCwbWMn.s:1355   .bss:00000000 StateLoTable

UNDEFINED SYMBOLS
__do_copy_data
__do_clear_bss
