   1               		.file	"main.c"
   2               	__SREG__ = 0x3f
   3               	__SP_H__ = 0x3e
   4               	__SP_L__ = 0x3d
   5               	__CCP__  = 0x34
   6               	__tmp_reg__ = 0
   7               	__zero_reg__ = 1
  15               	.Ltext0:
  16               	.global	PortInit
  18               	PortInit:
  19               	.LFB8:
  20               	.LM1:
  21               	/* prologue: function */
  22               	/* frame size = 0 */
  23               	.LM2:
  24 0000 8EE0      		ldi r24,lo8(14)
  25 0002 84B9      		out 36-32,r24
  26               	.LM3:
  27 0004 88E0      		ldi r24,lo8(8)
  28 0006 85B9      		out 37-32,r24
  29               	.LM4:
  30 0008 13B8      		out 35-32,__zero_reg__
  31               	.LM5:
  32 000a 85EE      		ldi r24,lo8(-27)
  33 000c 8AB9      		out 42-32,r24
  34               	.LM6:
  35 000e 81E6      		ldi r24,lo8(97)
  36 0010 8BB9      		out 43-32,r24
  37               	.LM7:
  38 0012 19B8      		out 41-32,__zero_reg__
  39               	.LM8:
  40 0014 80E3      		ldi r24,lo8(48)
  41 0016 87B9      		out 39-32,r24
  42               	.LM9:
  43 0018 88B9      		out 40-32,r24
  44               	.LM10:
  45 001a 16B8      		out 38-32,__zero_reg__
  46               	/* epilogue start */
  47               	.LM11:
  48 001c 0895      		ret
  49               	.LFE8:
  51               	.global	T1Init
  53               	T1Init:
  54               	.LFB9:
  55               	.LM12:
  56               	/* prologue: function */
  57               	/* frame size = 0 */
  58               	.LM13:
  59 001e 82EC      		ldi r24,lo8(-62)
  60 0020 8093 8100 		sts 129,r24
  61               	.LM14:
  62 0024 80E2      		ldi r24,lo8(32)
  63 0026 8093 6F00 		sts 111,r24
  64               	.LM15:
  65 002a 1092 8500 		sts (132)+1,__zero_reg__
  66 002e 1092 8400 		sts 132,__zero_reg__
  67               	/* epilogue start */
  68               	.LM16:
  69 0032 0895      		ret
  70               	.LFE9:
  72               	.global	I1Init
  74               	I1Init:
  75               	.LFB10:
  76               	.LM17:
  77               	/* prologue: function */
  78               	/* frame size = 0 */
  79               	.LM18:
  80 0034 8CE0      		ldi r24,lo8(12)
  81 0036 8093 6900 		sts 105,r24
  82               	/* epilogue start */
  83               	.LM19:
  84 003a 0895      		ret
  85               	.LFE10:
  87               	.global	PCInit
  89               	PCInit:
  90               	.LFB11:
  91               	.LM20:
  92               	/* prologue: function */
  93               	/* frame size = 0 */
  94               	.LM21:
  95 003c E8E6      		ldi r30,lo8(104)
  96 003e F0E0      		ldi r31,hi8(104)
  97 0040 8081      		ld r24,Z
  98 0042 8260      		ori r24,lo8(2)
  99 0044 8083      		st Z,r24
 100               	.LM22:
 101 0046 ECE6      		ldi r30,lo8(108)
 102 0048 F0E0      		ldi r31,hi8(108)
 103 004a 8081      		ld r24,Z
 104 004c 8760      		ori r24,lo8(7)
 105 004e 8083      		st Z,r24
 106               	/* epilogue start */
 107               	.LM23:
 108 0050 0895      		ret
 109               	.LFE11:
 111               	.global	T0Init
 113               	T0Init:
 114               	.LFB12:
 115               	.LM24:
 116               	/* prologue: function */
 117               	/* frame size = 0 */
 118               	.LM25:
 119 0052 81EA      		ldi r24,lo8(-95)
 120 0054 84BD      		out 68-32,r24
 121               	.LM26:
 122 0056 81E0      		ldi r24,lo8(1)
 123 0058 85BD      		out 69-32,r24
 124               	.LM27:
 125 005a 18BC      		out 72-32,__zero_reg__
 126 005c 88B5      		in r24,72-32
 127 005e 87BD      		out 71-32,r24
 128               	/* epilogue start */
 129               	.LM28:
 130 0060 0895      		ret
 131               	.LFE12:
 133               	.global	T2Init
 135               	T2Init:
 136               	.LFB13:
 137               	.LM29:
 138               	/* prologue: function */
 139               	/* frame size = 0 */
 140               	.LM30:
 141 0062 81E8      		ldi r24,lo8(-127)
 142 0064 8093 B000 		sts 176,r24
 143               	.LM31:
 144 0068 81E0      		ldi r24,lo8(1)
 145 006a 8093 B100 		sts 177,r24
 146               	.LM32:
 147 006e 1092 B300 		sts 179,__zero_reg__
 148               	/* epilogue start */
 149               	.LM33:
 150 0072 0895      		ret
 151               	.LFE13:
 153               	.global	__vector_10
 155               	__vector_10:
 156               	.LFB14:
 157               	.LM34:
 158 0074 1F92      		push __zero_reg__
 159 0076 0F92      		push r0
 160 0078 0FB6      		in r0,__SREG__
 161 007a 0F92      		push r0
 162 007c 1124      		clr __zero_reg__
 163 007e 2F93      		push r18
 164 0080 3F93      		push r19
 165 0082 4F93      		push r20
 166 0084 8F93      		push r24
 167 0086 9F93      		push r25
 168               	/* prologue: Signal */
 169               	/* frame size = 0 */
 170               	.LM35:
 171 0088 8091 0000 		lds r24,CaptStat
 172 008c 8823      		tst r24
 173 008e 01F0      		breq .L14
 174               	.LM36:
 175 0090 1092 0000 		sts CaptStat,__zero_reg__
 176               	.LM37:
 177 0094 82E8      		ldi r24,lo8(-126)
 178 0096 8093 8100 		sts 129,r24
 179 009a 1092 8500 		sts (132)+1,__zero_reg__
 180 009e 1092 8400 		sts 132,__zero_reg__
 181 00a2 1092 8700 		sts (134)+1,__zero_reg__
 182 00a6 1092 8600 		sts 134,__zero_reg__
 183 00aa 00C0      		rjmp .L20
 184               	.L14:
 185               	.LM38:
 186 00ac 41E0      		ldi r20,lo8(1)
 187 00ae 4093 0000 		sts CaptStat,r20
 188               	.LM39:
 189 00b2 82EC      		ldi r24,lo8(-62)
 190 00b4 8093 8100 		sts 129,r24
 191 00b8 1092 8500 		sts (132)+1,__zero_reg__
 192 00bc 1092 8400 		sts 132,__zero_reg__
 193               	.LM40:
 194 00c0 85B1      		in r24,37-32
 195 00c2 94E0      		ldi r25,lo8(4)
 196 00c4 8927      		eor r24,r25
 197 00c6 85B9      		out 37-32,r24
 198               	.LM41:
 199 00c8 8091 8600 		lds r24,134
 200 00cc 90E0      		ldi r25,lo8(0)
 201 00ce 9093 0000 		sts (speed)+1,r25
 202 00d2 8093 0000 		sts speed,r24
 203               	.LM42:
 204 00d6 8091 0000 		lds r24,times
 205 00da 8F5F      		subi r24,lo8(-(1))
 206 00dc 8093 0000 		sts times,r24
 207 00e0 8150      		subi r24,lo8(-(-1))
 208 00e2 8330      		cpi r24,lo8(3)
 209 00e4 00F0      		brlo .L16
 210               	.LM43:
 211 00e6 2091 0000 		lds r18,LastValue
 212 00ea 3091 0000 		lds r19,(LastValue)+1
 213 00ee 8091 0000 		lds r24,VelInte
 214 00f2 9091 0000 		lds r25,(VelInte)+1
 215 00f6 2817      		cp r18,r24
 216 00f8 3907      		cpc r19,r25
 217 00fa 01F4      		brne .L17
 218               	.LM44:
 219 00fc 4093 0000 		sts stall,r20
 220 0100 00C0      		rjmp .L18
 221               	.L17:
 222               	.LM45:
 223 0102 8091 0000 		lds r24,VelInte
 224 0106 9091 0000 		lds r25,(VelInte)+1
 225 010a 9093 0000 		sts (LastValue)+1,r25
 226 010e 8093 0000 		sts LastValue,r24
 227               	.LM46:
 228 0112 1092 0000 		sts stall,__zero_reg__
 229               	.L18:
 230               	.LM47:
 231 0116 1092 0000 		sts times,__zero_reg__
 232               	.L16:
 233               	.LM48:
 234 011a 8091 0000 		lds r24,VelInte
 235 011e 9091 0000 		lds r25,(VelInte)+1
 236 0122 8156      		subi r24,lo8(-5535)
 237 0124 9A4E      		sbci r25,hi8(-5535)
 238 0126 00F0      		brlo .L19
 239               	.LM49:
 240 0128 1092 0000 		sts (VelInte)+1,__zero_reg__
 241 012c 1092 0000 		sts VelInte,__zero_reg__
 242               	.L19:
 243               	.LM50:
 244 0130 81E0      		ldi r24,lo8(1)
 245 0132 8093 0000 		sts update,r24
 246               	.L20:
 247               	/* epilogue start */
 248               	.LM51:
 249 0136 9F91      		pop r25
 250 0138 8F91      		pop r24
 251 013a 4F91      		pop r20
 252 013c 3F91      		pop r19
 253 013e 2F91      		pop r18
 254 0140 0F90      		pop r0
 255 0142 0FBE      		out __SREG__,r0
 256 0144 0F90      		pop r0
 257 0146 1F90      		pop __zero_reg__
 258 0148 1895      		reti
 259               	.LFE14:
 262               	commut:
 263               	.LFB17:
 264               	.LM52:
 265               	.LVL0:
 266               	/* prologue: function */
 267               	/* frame size = 0 */
 268 014a 982F      		mov r25,r24
 269               	.LM53:
 270 014c 8091 0000 		lds r24,dir
 271               	.LVL1:
 272 0150 8823      		tst r24
 273 0152 01F4      		brne .+2
 274 0154 00C0      		rjmp .L22
 275               	.LM54:
 276 0156 9330      		cpi r25,lo8(3)
 277 0158 01F4      		brne .+2
 278 015a 00C0      		rjmp .L26
 279 015c 9430      		cpi r25,lo8(4)
 280 015e 00F4      		brsh .L30
 281 0160 9130      		cpi r25,lo8(1)
 282 0162 01F4      		brne .+2
 283 0164 00C0      		rjmp .L24
 284 0166 9230      		cpi r25,lo8(2)
 285 0168 01F0      		breq .+2
 286 016a 00C0      		rjmp .L38
 287 016c 00C0      		rjmp .L48
 288               	.L30:
 289 016e 9530      		cpi r25,lo8(5)
 290 0170 01F0      		breq .L28
 291 0172 9530      		cpi r25,lo8(5)
 292 0174 00F0      		brlo .L27
 293 0176 9630      		cpi r25,lo8(6)
 294 0178 01F0      		breq .+2
 295 017a 00C0      		rjmp .L38
 296 017c 00C0      		rjmp .L49
 297               	.L28:
 298               	.LM55:
 299 017e 84B5      		in r24,68-32
 300 0180 8F70      		andi r24,lo8(15)
 301 0182 84BD      		out 68-32,r24
 302 0184 8091 B000 		lds r24,176
 303 0188 8F73      		andi r24,lo8(63)
 304 018a 8093 B000 		sts 176,r24
 305 018e 589A      		sbi 43-32,0
 306 0190 88B1      		in r24,40-32
 307 0192 8063      		ori r24,lo8(48)
 308 0194 88B9      		out 40-32,r24
 309               	/* #APP */
 310               	 ;  207 "main.c" 1
 311 0196 0000      		nop
 312               	 ;  0 "" 2
 313               	 ;  207 "main.c" 1
 314 0198 0000      		nop
 315               	 ;  0 "" 2
 316               	 ;  207 "main.c" 1
 317 019a 0000      		nop
 318               	 ;  0 "" 2
 319               	 ;  207 "main.c" 1
 320 019c 0000      		nop
 321               	 ;  0 "" 2
 322               	 ;  207 "main.c" 1
 323 019e 0000      		nop
 324               	 ;  0 "" 2
 325               	 ;  207 "main.c" 1
 326 01a0 0000      		nop
 327               	 ;  0 "" 2
 328               	 ;  207 "main.c" 1
 329 01a2 0000      		nop
 330               	 ;  0 "" 2
 331               	 ;  207 "main.c" 1
 332 01a4 0000      		nop
 333               	 ;  0 "" 2
 334               	/* #NOAPP */
 335 01a6 00C0      		rjmp .L47
 336               	.L27:
 337               	.LM56:
 338 01a8 84B5      		in r24,68-32
 339 01aa 8F70      		andi r24,lo8(15)
 340 01ac 84BD      		out 68-32,r24
 341 01ae 8091 B000 		lds r24,176
 342 01b2 8F73      		andi r24,lo8(63)
 343 01b4 8093 B000 		sts 176,r24
 344 01b8 589A      		sbi 43-32,0
 345 01ba 88B1      		in r24,40-32
 346 01bc 8063      		ori r24,lo8(48)
 347 01be 88B9      		out 40-32,r24
 348               	/* #APP */
 349               	 ;  210 "main.c" 1
 350 01c0 0000      		nop
 351               	 ;  0 "" 2
 352               	 ;  210 "main.c" 1
 353 01c2 0000      		nop
 354               	 ;  0 "" 2
 355               	 ;  210 "main.c" 1
 356 01c4 0000      		nop
 357               	 ;  0 "" 2
 358               	 ;  210 "main.c" 1
 359 01c6 0000      		nop
 360               	 ;  0 "" 2
 361               	 ;  210 "main.c" 1
 362 01c8 0000      		nop
 363               	 ;  0 "" 2
 364               	 ;  210 "main.c" 1
 365 01ca 0000      		nop
 366               	 ;  0 "" 2
 367               	 ;  210 "main.c" 1
 368 01cc 0000      		nop
 369               	 ;  0 "" 2
 370               	 ;  210 "main.c" 1
 371 01ce 0000      		nop
 372               	 ;  0 "" 2
 373               	/* #NOAPP */
 374 01d0 00C0      		rjmp .L46
 375               	.L49:
 376               	.LM57:
 377 01d2 84B5      		in r24,68-32
 378 01d4 8F70      		andi r24,lo8(15)
 379 01d6 84BD      		out 68-32,r24
 380 01d8 8091 B000 		lds r24,176
 381 01dc 8F73      		andi r24,lo8(63)
 382 01de 8093 B000 		sts 176,r24
 383 01e2 589A      		sbi 43-32,0
 384 01e4 88B1      		in r24,40-32
 385 01e6 8063      		ori r24,lo8(48)
 386 01e8 88B9      		out 40-32,r24
 387               	/* #APP */
 388               	 ;  213 "main.c" 1
 389 01ea 0000      		nop
 390               	 ;  0 "" 2
 391               	 ;  213 "main.c" 1
 392 01ec 0000      		nop
 393               	 ;  0 "" 2
 394               	 ;  213 "main.c" 1
 395 01ee 0000      		nop
 396               	 ;  0 "" 2
 397               	 ;  213 "main.c" 1
 398 01f0 0000      		nop
 399               	 ;  0 "" 2
 400               	 ;  213 "main.c" 1
 401 01f2 0000      		nop
 402               	 ;  0 "" 2
 403               	 ;  213 "main.c" 1
 404 01f4 0000      		nop
 405               	 ;  0 "" 2
 406               	 ;  213 "main.c" 1
 407 01f6 0000      		nop
 408               	 ;  0 "" 2
 409               	 ;  213 "main.c" 1
 410 01f8 0000      		nop
 411               	 ;  0 "" 2
 412               	/* #NOAPP */
 413 01fa 5898      		cbi 43-32,0
 414 01fc 00C0      		rjmp .L40
 415               	.L48:
 416               	.LM58:
 417 01fe 84B5      		in r24,68-32
 418 0200 8F70      		andi r24,lo8(15)
 419 0202 84BD      		out 68-32,r24
 420 0204 8091 B000 		lds r24,176
 421 0208 8F73      		andi r24,lo8(63)
 422 020a 8093 B000 		sts 176,r24
 423 020e 589A      		sbi 43-32,0
 424 0210 88B1      		in r24,40-32
 425 0212 8063      		ori r24,lo8(48)
 426 0214 88B9      		out 40-32,r24
 427               	/* #APP */
 428               	 ;  216 "main.c" 1
 429 0216 0000      		nop
 430               	 ;  0 "" 2
 431               	 ;  216 "main.c" 1
 432 0218 0000      		nop
 433               	 ;  0 "" 2
 434               	 ;  216 "main.c" 1
 435 021a 0000      		nop
 436               	 ;  0 "" 2
 437               	 ;  216 "main.c" 1
 438 021c 0000      		nop
 439               	 ;  0 "" 2
 440               	 ;  216 "main.c" 1
 441 021e 0000      		nop
 442               	 ;  0 "" 2
 443               	 ;  216 "main.c" 1
 444 0220 0000      		nop
 445               	 ;  0 "" 2
 446               	 ;  216 "main.c" 1
 447 0222 0000      		nop
 448               	 ;  0 "" 2
 449               	 ;  216 "main.c" 1
 450 0224 0000      		nop
 451               	 ;  0 "" 2
 452               	/* #NOAPP */
 453 0226 00C0      		rjmp .L42
 454               	.L26:
 455               	.LM59:
 456 0228 84B5      		in r24,68-32
 457 022a 8F70      		andi r24,lo8(15)
 458 022c 84BD      		out 68-32,r24
 459 022e 8091 B000 		lds r24,176
 460 0232 8F73      		andi r24,lo8(63)
 461 0234 8093 B000 		sts 176,r24
 462 0238 589A      		sbi 43-32,0
 463 023a 88B1      		in r24,40-32
 464 023c 8063      		ori r24,lo8(48)
 465 023e 88B9      		out 40-32,r24
 466               	/* #APP */
 467               	 ;  219 "main.c" 1
 468 0240 0000      		nop
 469               	 ;  0 "" 2
 470               	 ;  219 "main.c" 1
 471 0242 0000      		nop
 472               	 ;  0 "" 2
 473               	 ;  219 "main.c" 1
 474 0244 0000      		nop
 475               	 ;  0 "" 2
 476               	 ;  219 "main.c" 1
 477 0246 0000      		nop
 478               	 ;  0 "" 2
 479               	 ;  219 "main.c" 1
 480 0248 0000      		nop
 481               	 ;  0 "" 2
 482               	 ;  219 "main.c" 1
 483 024a 0000      		nop
 484               	 ;  0 "" 2
 485               	 ;  219 "main.c" 1
 486 024c 0000      		nop
 487               	 ;  0 "" 2
 488               	 ;  219 "main.c" 1
 489 024e 0000      		nop
 490               	 ;  0 "" 2
 491               	/* #NOAPP */
 492 0250 00C0      		rjmp .L44
 493               	.L24:
 494               	.LM60:
 495 0252 84B5      		in r24,68-32
 496 0254 8F70      		andi r24,lo8(15)
 497 0256 84BD      		out 68-32,r24
 498 0258 8091 B000 		lds r24,176
 499 025c 8F73      		andi r24,lo8(63)
 500 025e 8093 B000 		sts 176,r24
 501 0262 589A      		sbi 43-32,0
 502 0264 88B1      		in r24,40-32
 503 0266 8063      		ori r24,lo8(48)
 504 0268 88B9      		out 40-32,r24
 505               	/* #APP */
 506               	 ;  222 "main.c" 1
 507 026a 0000      		nop
 508               	 ;  0 "" 2
 509               	 ;  222 "main.c" 1
 510 026c 0000      		nop
 511               	 ;  0 "" 2
 512               	 ;  222 "main.c" 1
 513 026e 0000      		nop
 514               	 ;  0 "" 2
 515               	 ;  222 "main.c" 1
 516 0270 0000      		nop
 517               	 ;  0 "" 2
 518               	 ;  222 "main.c" 1
 519 0272 0000      		nop
 520               	 ;  0 "" 2
 521               	 ;  222 "main.c" 1
 522 0274 0000      		nop
 523               	 ;  0 "" 2
 524               	 ;  222 "main.c" 1
 525 0276 0000      		nop
 526               	 ;  0 "" 2
 527               	 ;  222 "main.c" 1
 528 0278 0000      		nop
 529               	 ;  0 "" 2
 530               	/* #NOAPP */
 531               	.L45:
 532 027a 4498      		cbi 40-32,4
 533               	.L43:
 534 027c 84B5      		in r24,68-32
 535 027e 8068      		ori r24,lo8(-128)
 536 0280 00C0      		rjmp .L41
 537               	.L22:
 538               	.LM61:
 539 0282 9330      		cpi r25,lo8(3)
 540 0284 01F4      		brne .+2
 541 0286 00C0      		rjmp .L33
 542 0288 9430      		cpi r25,lo8(4)
 543 028a 00F4      		brsh .L37
 544 028c 9130      		cpi r25,lo8(1)
 545 028e 01F4      		brne .+2
 546 0290 00C0      		rjmp .L31
 547 0292 9230      		cpi r25,lo8(2)
 548 0294 01F0      		breq .+2
 549 0296 00C0      		rjmp .L38
 550 0298 00C0      		rjmp .L50
 551               	.L37:
 552 029a 9530      		cpi r25,lo8(5)
 553 029c 01F0      		breq .L35
 554 029e 9530      		cpi r25,lo8(5)
 555 02a0 00F0      		brlo .L34
 556 02a2 9630      		cpi r25,lo8(6)
 557 02a4 01F0      		breq .+2
 558 02a6 00C0      		rjmp .L38
 559 02a8 00C0      		rjmp .L51
 560               	.L35:
 561               	.LM62:
 562 02aa 84B5      		in r24,68-32
 563 02ac 8F70      		andi r24,lo8(15)
 564 02ae 84BD      		out 68-32,r24
 565 02b0 8091 B000 		lds r24,176
 566 02b4 8F73      		andi r24,lo8(63)
 567 02b6 8093 B000 		sts 176,r24
 568 02ba 589A      		sbi 43-32,0
 569 02bc 88B1      		in r24,40-32
 570 02be 8063      		ori r24,lo8(48)
 571 02c0 88B9      		out 40-32,r24
 572               	/* #APP */
 573               	 ;  233 "main.c" 1
 574 02c2 0000      		nop
 575               	 ;  0 "" 2
 576               	 ;  233 "main.c" 1
 577 02c4 0000      		nop
 578               	 ;  0 "" 2
 579               	 ;  233 "main.c" 1
 580 02c6 0000      		nop
 581               	 ;  0 "" 2
 582               	 ;  233 "main.c" 1
 583 02c8 0000      		nop
 584               	 ;  0 "" 2
 585               	 ;  233 "main.c" 1
 586 02ca 0000      		nop
 587               	 ;  0 "" 2
 588               	 ;  233 "main.c" 1
 589 02cc 0000      		nop
 590               	 ;  0 "" 2
 591               	 ;  233 "main.c" 1
 592 02ce 0000      		nop
 593               	 ;  0 "" 2
 594               	 ;  233 "main.c" 1
 595 02d0 0000      		nop
 596               	 ;  0 "" 2
 597               	/* #NOAPP */
 598               	.L42:
 599 02d2 4598      		cbi 40-32,5
 600               	.L40:
 601 02d4 8091 B000 		lds r24,176
 602 02d8 8068      		ori r24,lo8(-128)
 603 02da 8093 B000 		sts 176,r24
 604 02de 0895      		ret
 605               	.L34:
 606               	.LM63:
 607 02e0 84B5      		in r24,68-32
 608 02e2 8F70      		andi r24,lo8(15)
 609 02e4 84BD      		out 68-32,r24
 610 02e6 8091 B000 		lds r24,176
 611 02ea 8F73      		andi r24,lo8(63)
 612 02ec 8093 B000 		sts 176,r24
 613 02f0 589A      		sbi 43-32,0
 614 02f2 88B1      		in r24,40-32
 615 02f4 8063      		ori r24,lo8(48)
 616 02f6 88B9      		out 40-32,r24
 617               	/* #APP */
 618               	 ;  236 "main.c" 1
 619 02f8 0000      		nop
 620               	 ;  0 "" 2
 621               	 ;  236 "main.c" 1
 622 02fa 0000      		nop
 623               	 ;  0 "" 2
 624               	 ;  236 "main.c" 1
 625 02fc 0000      		nop
 626               	 ;  0 "" 2
 627               	 ;  236 "main.c" 1
 628 02fe 0000      		nop
 629               	 ;  0 "" 2
 630               	 ;  236 "main.c" 1
 631 0300 0000      		nop
 632               	 ;  0 "" 2
 633               	 ;  236 "main.c" 1
 634 0302 0000      		nop
 635               	 ;  0 "" 2
 636               	 ;  236 "main.c" 1
 637 0304 0000      		nop
 638               	 ;  0 "" 2
 639               	 ;  236 "main.c" 1
 640 0306 0000      		nop
 641               	 ;  0 "" 2
 642               	/* #NOAPP */
 643               	.L44:
 644 0308 4598      		cbi 40-32,5
 645 030a 00C0      		rjmp .L43
 646               	.L51:
 647               	.LM64:
 648 030c 84B5      		in r24,68-32
 649 030e 8F70      		andi r24,lo8(15)
 650 0310 84BD      		out 68-32,r24
 651 0312 8091 B000 		lds r24,176
 652 0316 8F73      		andi r24,lo8(63)
 653 0318 8093 B000 		sts 176,r24
 654 031c 589A      		sbi 43-32,0
 655 031e 88B1      		in r24,40-32
 656 0320 8063      		ori r24,lo8(48)
 657 0322 88B9      		out 40-32,r24
 658               	/* #APP */
 659               	 ;  239 "main.c" 1
 660 0324 0000      		nop
 661               	 ;  0 "" 2
 662               	 ;  239 "main.c" 1
 663 0326 0000      		nop
 664               	 ;  0 "" 2
 665               	 ;  239 "main.c" 1
 666 0328 0000      		nop
 667               	 ;  0 "" 2
 668               	 ;  239 "main.c" 1
 669 032a 0000      		nop
 670               	 ;  0 "" 2
 671               	 ;  239 "main.c" 1
 672 032c 0000      		nop
 673               	 ;  0 "" 2
 674               	 ;  239 "main.c" 1
 675 032e 0000      		nop
 676               	 ;  0 "" 2
 677               	 ;  239 "main.c" 1
 678 0330 0000      		nop
 679               	 ;  0 "" 2
 680               	 ;  239 "main.c" 1
 681 0332 0000      		nop
 682               	 ;  0 "" 2
 683               	/* #NOAPP */
 684 0334 00C0      		rjmp .L45
 685               	.L50:
 686               	.LM65:
 687 0336 84B5      		in r24,68-32
 688 0338 8F70      		andi r24,lo8(15)
 689 033a 84BD      		out 68-32,r24
 690 033c 8091 B000 		lds r24,176
 691 0340 8F73      		andi r24,lo8(63)
 692 0342 8093 B000 		sts 176,r24
 693 0346 589A      		sbi 43-32,0
 694 0348 88B1      		in r24,40-32
 695 034a 8063      		ori r24,lo8(48)
 696 034c 88B9      		out 40-32,r24
 697               	/* #APP */
 698               	 ;  242 "main.c" 1
 699 034e 0000      		nop
 700               	 ;  0 "" 2
 701               	 ;  242 "main.c" 1
 702 0350 0000      		nop
 703               	 ;  0 "" 2
 704               	 ;  242 "main.c" 1
 705 0352 0000      		nop
 706               	 ;  0 "" 2
 707               	 ;  242 "main.c" 1
 708 0354 0000      		nop
 709               	 ;  0 "" 2
 710               	 ;  242 "main.c" 1
 711 0356 0000      		nop
 712               	 ;  0 "" 2
 713               	 ;  242 "main.c" 1
 714 0358 0000      		nop
 715               	 ;  0 "" 2
 716               	 ;  242 "main.c" 1
 717 035a 0000      		nop
 718               	 ;  0 "" 2
 719               	 ;  242 "main.c" 1
 720 035c 0000      		nop
 721               	 ;  0 "" 2
 722               	/* #NOAPP */
 723               	.L47:
 724 035e 4498      		cbi 40-32,4
 725 0360 00C0      		rjmp .L39
 726               	.L33:
 727               	.LM66:
 728 0362 84B5      		in r24,68-32
 729 0364 8F70      		andi r24,lo8(15)
 730 0366 84BD      		out 68-32,r24
 731 0368 8091 B000 		lds r24,176
 732 036c 8F73      		andi r24,lo8(63)
 733 036e 8093 B000 		sts 176,r24
 734 0372 589A      		sbi 43-32,0
 735 0374 88B1      		in r24,40-32
 736 0376 8063      		ori r24,lo8(48)
 737 0378 88B9      		out 40-32,r24
 738               	/* #APP */
 739               	 ;  245 "main.c" 1
 740 037a 0000      		nop
 741               	 ;  0 "" 2
 742               	 ;  245 "main.c" 1
 743 037c 0000      		nop
 744               	 ;  0 "" 2
 745               	 ;  245 "main.c" 1
 746 037e 0000      		nop
 747               	 ;  0 "" 2
 748               	 ;  245 "main.c" 1
 749 0380 0000      		nop
 750               	 ;  0 "" 2
 751               	 ;  245 "main.c" 1
 752 0382 0000      		nop
 753               	 ;  0 "" 2
 754               	 ;  245 "main.c" 1
 755 0384 0000      		nop
 756               	 ;  0 "" 2
 757               	 ;  245 "main.c" 1
 758 0386 0000      		nop
 759               	 ;  0 "" 2
 760               	 ;  245 "main.c" 1
 761 0388 0000      		nop
 762               	 ;  0 "" 2
 763               	/* #NOAPP */
 764               	.L46:
 765 038a 5898      		cbi 43-32,0
 766               	.L39:
 767 038c 84B5      		in r24,68-32
 768 038e 8062      		ori r24,lo8(32)
 769               	.L41:
 770 0390 84BD      		out 68-32,r24
 771 0392 0895      		ret
 772               	.L31:
 773               	.LM67:
 774 0394 84B5      		in r24,68-32
 775 0396 8F70      		andi r24,lo8(15)
 776 0398 84BD      		out 68-32,r24
 777 039a 8091 B000 		lds r24,176
 778 039e 8F73      		andi r24,lo8(63)
 779 03a0 8093 B000 		sts 176,r24
 780 03a4 589A      		sbi 43-32,0
 781 03a6 88B1      		in r24,40-32
 782 03a8 8063      		ori r24,lo8(48)
 783 03aa 88B9      		out 40-32,r24
 784               	/* #APP */
 785               	 ;  248 "main.c" 1
 786 03ac 0000      		nop
 787               	 ;  0 "" 2
 788               	 ;  248 "main.c" 1
 789 03ae 0000      		nop
 790               	 ;  0 "" 2
 791               	 ;  248 "main.c" 1
 792 03b0 0000      		nop
 793               	 ;  0 "" 2
 794               	 ;  248 "main.c" 1
 795 03b2 0000      		nop
 796               	 ;  0 "" 2
 797               	 ;  248 "main.c" 1
 798 03b4 0000      		nop
 799               	 ;  0 "" 2
 800               	 ;  248 "main.c" 1
 801 03b6 0000      		nop
 802               	 ;  0 "" 2
 803               	 ;  248 "main.c" 1
 804 03b8 0000      		nop
 805               	 ;  0 "" 2
 806               	 ;  248 "main.c" 1
 807 03ba 0000      		nop
 808               	 ;  0 "" 2
 809               	/* #NOAPP */
 810 03bc 5898      		cbi 43-32,0
 811 03be 8091 B000 		lds r24,176
 812 03c2 8068      		ori r24,lo8(-128)
 813 03c4 8093 B000 		sts 176,r24
 814               	.L38:
 815 03c8 0895      		ret
 816               	.LFE17:
 818               	.global	StartFun
 820               	StartFun:
 821               	.LFB16:
 822               	.LM68:
 823               	.LVL2:
 824 03ca 0F93      		push r16
 825 03cc 1F93      		push r17
 826 03ce CF93      		push r28
 827 03d0 DF93      		push r29
 828               	/* prologue: function */
 829               	/* frame size = 0 */
 830               	.LM69:
 831 03d2 1092 0000 		sts times,__zero_reg__
 832 03d6 1092 0000 		sts stall,__zero_reg__
 833               	.LM70:
 834 03da 8091 6800 		lds r24,104
 835               	.LVL3:
 836 03de 8C7F      		andi r24,lo8(-4)
 837 03e0 8093 6800 		sts 104,r24
 838               	.LM71:
 839 03e4 1092 8100 		sts 129,__zero_reg__
 840 03e8 8091 6F00 		lds r24,111
 841 03ec 8E7F      		andi r24,lo8(-2)
 842 03ee 8093 6F00 		sts 111,r24
 843               	.LM72:
 844 03f2 E998      		cbi 61-32,1
 845               	.LM73:
 846 03f4 80EE      		ldi r24,lo8(-32)
 847 03f6 8093 B300 		sts 179,r24
 848 03fa 8091 B300 		lds r24,179
 849 03fe 88BD      		out 72-32,r24
 850 0400 88B5      		in r24,72-32
 851 0402 87BD      		out 71-32,r24
 852               	.LM74:
 853 0404 8091 6800 		lds r24,104
 854 0408 8260      		ori r24,lo8(2)
 855 040a 8093 6800 		sts 104,r24
 856 040e 00EE      		ldi r16,lo8(-32)
 857               	.LVL4:
 858               	.LBB26:
 859               	.LBB27:
 860               	.LBB28:
 861               	.LBB29:
 862               	.LM75:
 863 0410 C0E2      		ldi r28,lo8(20000)
 864 0412 DEE4      		ldi r29,hi8(20000)
 865               	.LVL5:
 866               	.L57:
 867               	.LBE29:
 868               	.LBE28:
 869               	.LBE27:
 870               	.LBE26:
 871               	.LM76:
 872 0414 10E0      		ldi r17,lo8(0)
 873               	.LVL6:
 874               	.L54:
 875               	.LM77:
 876 0416 8091 0000 		lds r24,VelInte
 877 041a 9091 0000 		lds r25,(VelInte)+1
 878               	.LVL7:
 879 041e 0597      		sbiw r24,5
 880 0420 00F4      		brsh .L53
 881               	.LM78:
 882 0422 812F      		mov r24,r17
 883 0424 00D0      		rcall commut
 884               	.LBB33:
 885               	.LBB32:
 886               	.LBB31:
 887               	.LBB30:
 888               	.LM79:
 889 0426 CE01      		movw r24,r28
 890               	.LVL8:
 891               	/* #APP */
 892               	 ;  105 "c:/winavr-20100110/lib/gcc/../../avr/include/util/delay_basic.h" 1
 893 0428 0197      		1: sbiw r24,1
 894 042a 01F4      		brne 1b
 895               	 ;  0 "" 2
 896               	/* #NOAPP */
 897               	.LBE30:
 898               	.LBE31:
 899               	.LBE32:
 900               	.LBE33:
 901               	.LM80:
 902 042c 1F5F      		subi r17,lo8(-(1))
 903 042e 1830      		cpi r17,lo8(8)
 904 0430 01F4      		brne .L54
 905               	.LM81:
 906 0432 0850      		subi r16,lo8(-(-8))
 907               	.LM82:
 908 0434 0031      		cpi r16,lo8(16)
 909 0436 01F4      		brne .L55
 910               	.LM83:
 911 0438 8FEF      		ldi r24,lo8(-1)
 912               	.LVL9:
 913 043a 8093 B300 		sts 179,r24
 914 043e 8091 B300 		lds r24,179
 915 0442 88BD      		out 72-32,r24
 916 0444 88B5      		in r24,72-32
 917 0446 87BD      		out 71-32,r24
 918 0448 20E0      		ldi r18,lo8(0)
 919 044a 30E0      		ldi r19,hi8(0)
 920 044c 00C0      		rjmp .L56
 921               	.LVL10:
 922               	.L55:
 923               	.LM84:
 924 044e 0093 B300 		sts 179,r16
 925 0452 8091 B300 		lds r24,179
 926               	.LVL11:
 927 0456 88BD      		out 72-32,r24
 928 0458 88B5      		in r24,72-32
 929 045a 87BD      		out 71-32,r24
 930 045c 00C0      		rjmp .L57
 931               	.L53:
 932               	.LM85:
 933 045e 21E0      		ldi r18,lo8(1)
 934 0460 30E0      		ldi r19,hi8(1)
 935               	.L56:
 936               	.LM86:
 937 0462 C901      		movw r24,r18
 938               	/* epilogue start */
 939 0464 DF91      		pop r29
 940 0466 CF91      		pop r28
 941 0468 1F91      		pop r17
 942               	.LVL12:
 943 046a 0F91      		pop r16
 944               	.LVL13:
 945 046c 0895      		ret
 946               	.LFE16:
 948               	.global	__vector_4
 950               	__vector_4:
 951               	.LFB15:
 952               	.LM87:
 953 046e 1F92      		push __zero_reg__
 954 0470 0F92      		push r0
 955 0472 0FB6      		in r0,__SREG__
 956 0474 0F92      		push r0
 957 0476 1124      		clr __zero_reg__
 958 0478 2F93      		push r18
 959 047a 3F93      		push r19
 960 047c 4F93      		push r20
 961 047e 5F93      		push r21
 962 0480 6F93      		push r22
 963 0482 7F93      		push r23
 964 0484 8F93      		push r24
 965 0486 9F93      		push r25
 966 0488 AF93      		push r26
 967 048a BF93      		push r27
 968 048c EF93      		push r30
 969 048e FF93      		push r31
 970               	/* prologue: Signal */
 971               	/* frame size = 0 */
 972               	.LM88:
 973 0490 8091 0000 		lds r24,VelInte
 974 0494 9091 0000 		lds r25,(VelInte)+1
 975 0498 0196      		adiw r24,1
 976 049a 9093 0000 		sts (VelInte)+1,r25
 977 049e 8093 0000 		sts VelInte,r24
 978               	.LM89:
 979 04a2 86B1      		in r24,38-32
 980 04a4 8770      		andi r24,lo8(7)
 981 04a6 00D0      		rcall commut
 982               	/* epilogue start */
 983               	.LM90:
 984 04a8 FF91      		pop r31
 985 04aa EF91      		pop r30
 986 04ac BF91      		pop r27
 987 04ae AF91      		pop r26
 988 04b0 9F91      		pop r25
 989 04b2 8F91      		pop r24
 990 04b4 7F91      		pop r23
 991 04b6 6F91      		pop r22
 992 04b8 5F91      		pop r21
 993 04ba 4F91      		pop r20
 994 04bc 3F91      		pop r19
 995 04be 2F91      		pop r18
 996 04c0 0F90      		pop r0
 997 04c2 0FBE      		out __SREG__,r0
 998 04c4 0F90      		pop r0
 999 04c6 1F90      		pop __zero_reg__
 1000 04c8 1895      		reti
 1001               	.LFE15:
 1003               	.global	main
 1005               	main:
 1006               	.LFB18:
 1007               	.LM91:
 1008 04ca 1F93      		push r17
 1009 04cc CF93      		push r28
 1010 04ce DF93      		push r29
 1011               	/* prologue: function */
 1012               	/* frame size = 0 */
 1013               	.LM92:
 1014               	/* #APP */
 1015               	 ;  258 "main.c" 1
 1016 04d0 F894      		cli
 1017               	 ;  0 "" 2
 1018               	.LM93:
 1019               	/* #NOAPP */
 1020 04d2 00D0      		rcall PortInit
 1021               	.LM94:
 1022 04d4 85B1      		in r24,37-32
 1023 04d6 92E0      		ldi r25,lo8(2)
 1024 04d8 8927      		eor r24,r25
 1025 04da 85B9      		out 37-32,r24
 1026 04dc 88E8      		ldi r24,lo8(5000)
 1027 04de 93E1      		ldi r25,hi8(5000)
 1028               	.LVL14:
 1029               	.LBB34:
 1030               	.LBB35:
 1031               	.LBB36:
 1032               	.LBB37:
 1033               	.LM95:
 1034 04e0 28EC      		ldi r18,lo8(200)
 1035 04e2 30E0      		ldi r19,hi8(200)
 1036               	.L63:
 1037 04e4 F901      		movw r30,r18
 1038               	.LVL15:
 1039               	/* #APP */
 1040               	 ;  105 "c:/winavr-20100110/lib/gcc/../../avr/include/util/delay_basic.h" 1
 1041 04e6 3197      		1: sbiw r30,1
 1042 04e8 01F4      		brne 1b
 1043               	 ;  0 "" 2
 1044               	/* #NOAPP */
 1045               	.LBE37:
 1046               	.LBE36:
 1047               	.LM96:
 1048 04ea 0197      		sbiw r24,1
 1049               	.LM97:
 1050 04ec 01F4      		brne .L63
 1051               	.LBE35:
 1052               	.LBE34:
 1053               	.LM98:
 1054 04ee 85B1      		in r24,37-32
 1055               	.LVL16:
 1056 04f0 92E0      		ldi r25,lo8(2)
 1057 04f2 8927      		eor r24,r25
 1058 04f4 85B9      		out 37-32,r24
 1059               	.LBB38:
 1060               	.LBB39:
 1061               	.LM99:
 1062 04f6 8091 6800 		lds r24,104
 1063 04fa 8260      		ori r24,lo8(2)
 1064 04fc 8093 6800 		sts 104,r24
 1065               	.LM100:
 1066 0500 8091 6C00 		lds r24,108
 1067 0504 8760      		ori r24,lo8(7)
 1068 0506 8093 6C00 		sts 108,r24
 1069               	.LBE39:
 1070               	.LBE38:
 1071               	.LBB40:
 1072               	.LBB41:
 1073               	.LM101:
 1074 050a 81EA      		ldi r24,lo8(-95)
 1075 050c 84BD      		out 68-32,r24
 1076               	.LM102:
 1077 050e 91E0      		ldi r25,lo8(1)
 1078 0510 95BD      		out 69-32,r25
 1079               	.LM103:
 1080 0512 18BC      		out 72-32,__zero_reg__
 1081 0514 88B5      		in r24,72-32
 1082 0516 87BD      		out 71-32,r24
 1083               	.LBE41:
 1084               	.LBE40:
 1085               	.LBB42:
 1086               	.LBB43:
 1087               	.LM104:
 1088 0518 81E8      		ldi r24,lo8(-127)
 1089 051a 8093 B000 		sts 176,r24
 1090               	.LM105:
 1091 051e 9093 B100 		sts 177,r25
 1092               	.LM106:
 1093 0522 1092 B300 		sts 179,__zero_reg__
 1094               	.LBE43:
 1095               	.LBE42:
 1096               	.LBB44:
 1097               	.LBB45:
 1098               	.LM107:
 1099 0526 82EC      		ldi r24,lo8(-62)
 1100 0528 8093 8100 		sts 129,r24
 1101               	.LM108:
 1102 052c 80E2      		ldi r24,lo8(32)
 1103 052e 8093 6F00 		sts 111,r24
 1104               	.LM109:
 1105 0532 1092 8500 		sts (132)+1,__zero_reg__
 1106 0536 1092 8400 		sts 132,__zero_reg__
 1107               	.LBE45:
 1108               	.LBE44:
 1109               	.LM110:
 1110               	/* #APP */
 1111               	 ;  267 "main.c" 1
 1112 053a 7894      		sei
 1113               	 ;  0 "" 2
 1114               	.LM111:
 1115               	/* #NOAPP */
 1116 053c 11E0      		ldi r17,lo8(1)
 1117               	.LM112:
 1118 053e CFEF      		ldi r28,lo8(255)
 1119 0540 D0E0      		ldi r29,hi8(255)
 1120               	.L77:
 1121               	.LM113:
 1122 0542 8091 0000 		lds r24,update
 1123 0546 8823      		tst r24
 1124 0548 01F0      		breq .L77
 1125               	.LM114:
 1126 054a 1092 0000 		sts update,__zero_reg__
 1127               	.LM115:
 1128 054e 2091 0000 		lds r18,speed
 1129 0552 3091 0000 		lds r19,(speed)+1
 1130 0556 2C5D      		subi r18,lo8(-(-1500))
 1131 0558 3540      		sbci r19,hi8(-(-1500))
 1132 055a 3093 0000 		sts (value)+1,r19
 1133 055e 2093 0000 		sts value,r18
 1134               	.LM116:
 1135 0562 37FD      		sbrc r19,7
 1136 0564 00C0      		rjmp .L65
 1137               	.LM117:
 1138 0566 299A      		sbi 37-32,1
 1139               	.LM118:
 1140 0568 1092 0000 		sts dir,__zero_reg__
 1141               	.LM119:
 1142 056c C901      		movw r24,r18
 1143 056e 9595      		asr r25
 1144 0570 8795      		ror r24
 1145 0572 9093 0000 		sts (value)+1,r25
 1146 0576 8093 0000 		sts value,r24
 1147               	.LM120:
 1148 057a 8F3F      		cpi r24,255
 1149 057c 9105      		cpc r25,__zero_reg__
 1150 057e 01F0      		breq .L66
 1151 0580 04F0      		brlt .L66
 1152               	.LM121:
 1153 0582 D093 0000 		sts (value)+1,r29
 1154 0586 C093 0000 		sts value,r28
 1155               	.L66:
 1156               	.LM122:
 1157 058a E091 0000 		lds r30,value
 1158 058e F091 0000 		lds r31,(value)+1
 1159               	.LVL17:
 1160 0592 EE0F      		lsl r30
 1161 0594 FF1F      		rol r31
 1162 0596 E050      		subi r30,lo8(-(porp))
 1163 0598 F040      		sbci r31,hi8(-(porp))
 1164 059a 8081      		ld r24,Z
 1165 059c 9181      		ldd r25,Z+1
 1166 059e 9093 0000 		sts (value)+1,r25
 1167 05a2 8093 0000 		sts value,r24
 1168 05a6 00C0      		rjmp .L67
 1169               	.LVL18:
 1170               	.L65:
 1171               	.LM123:
 1172 05a8 2998      		cbi 37-32,1
 1173               	.LM124:
 1174 05aa 8827      		clr r24
 1175 05ac 9927      		clr r25
 1176 05ae 821B      		sub r24,r18
 1177 05b0 930B      		sbc r25,r19
 1178 05b2 9595      		asr r25
 1179 05b4 8795      		ror r24
 1180 05b6 9093 0000 		sts (value)+1,r25
 1181 05ba 8093 0000 		sts value,r24
 1182               	.LM125:
 1183 05be 8F3F      		cpi r24,255
 1184 05c0 9105      		cpc r25,__zero_reg__
 1185 05c2 01F0      		breq .L68
 1186 05c4 04F0      		brlt .L68
 1187               	.LM126:
 1188 05c6 D093 0000 		sts (value)+1,r29
 1189 05ca C093 0000 		sts value,r28
 1190               	.L68:
 1191               	.LM127:
 1192 05ce E091 0000 		lds r30,value
 1193 05d2 F091 0000 		lds r31,(value)+1
 1194               	.LVL19:
 1195 05d6 EE0F      		lsl r30
 1196 05d8 FF1F      		rol r31
 1197 05da E050      		subi r30,lo8(-(porp))
 1198 05dc F040      		sbci r31,hi8(-(porp))
 1199 05de 8081      		ld r24,Z
 1200 05e0 9181      		ldd r25,Z+1
 1201 05e2 9093 0000 		sts (value)+1,r25
 1202 05e6 8093 0000 		sts value,r24
 1203               	.LM128:
 1204 05ea 1093 0000 		sts dir,r17
 1205               	.L67:
 1206               	.LM129:
 1207 05ee 8091 0000 		lds r24,stall
 1208 05f2 8823      		tst r24
 1209 05f4 01F0      		breq .L69
 1210 05f6 8091 0000 		lds r24,value
 1211 05fa 9091 0000 		lds r25,(value)+1
 1212 05fe 0297      		sbiw r24,2
 1213 0600 04F0      		brlt .L69
 1214               	.L73:
 1215               	.LM130:
 1216 0602 80E8      		ldi r24,lo8(-128)
 1217 0604 00D0      		rcall StartFun
 1218 0606 892B      		or r24,r25
 1219 0608 01F0      		breq .L73
 1220               	.LM131:
 1221 060a 8091 0000 		lds r24,value
 1222 060e 8093 B300 		sts 179,r24
 1223 0612 8091 B300 		lds r24,179
 1224 0616 88BD      		out 72-32,r24
 1225 0618 88B5      		in r24,72-32
 1226 061a 87BD      		out 71-32,r24
 1227               	.L69:
 1228               	.LM132:
 1229 061c 8091 0000 		lds r24,value
 1230 0620 8093 B300 		sts 179,r24
 1231 0624 8091 B300 		lds r24,179
 1232 0628 88BD      		out 72-32,r24
 1233 062a 88B5      		in r24,72-32
 1234 062c 87BD      		out 71-32,r24
 1235 062e 00C0      		rjmp .L77
 1236               	.LFE18:
 1238               	.global	tmpbuf
 1239               	.global	tmpbuf
 1240               		.section .bss
 1243               	tmpbuf:
 1244 0000 0000 0000 		.skip 16,0
 1244      0000 0000 
 1244      0000 0000 
 1244      0000 0000 
 1245               	.global	StateLoTable
 1246               	.global	StateLoTable
 1249               	StateLoTable:
 1250 0010 0000 0000 		.skip 16,0
 1250      0000 0000 
 1250      0000 0000 
 1250      0000 0000 
 1251               	.global	VelInte
 1252               	.global	VelInte
 1255               	VelInte:
 1256 0020 0000      		.skip 2,0
 1257               	.global	LastValue
 1258               	.global	LastValue
 1261               	LastValue:
 1262 0022 0000      		.skip 2,0
 1263               	.global	stall
 1264               		.data
 1267               	stall:
 1268 0000 01        		.byte	1
 1269               	.global	speed
 1270               	.global	speed
 1271               		.section .bss
 1274               	speed:
 1275 0024 0000      		.skip 2,0
 1276               	.global	dir
 1277               	.global	dir
 1280               	dir:
 1281 0026 00        		.skip 1,0
 1282               	.global	CaptStat
 1283               		.data
 1286               	CaptStat:
 1287 0001 01        		.byte	1
 1288               	.global	value
 1289               	.global	value
 1290               		.section .bss
 1293               	value:
 1294 0027 0000      		.skip 2,0
 1295               	.global	porp
 1296               		.data
 1299               	porp:
 1300 0002 0000      		.word	0
 1301 0004 0000      		.word	0
 1302 0006 0000      		.word	0
 1303 0008 0000      		.word	0
 1304 000a 0000      		.word	0
 1305 000c 0100      		.word	1
 1306 000e 0200      		.word	2
 1307 0010 0300      		.word	3
 1308 0012 0400      		.word	4
 1309 0014 0500      		.word	5
 1310 0016 0600      		.word	6
 1311 0018 0700      		.word	7
 1312 001a 0800      		.word	8
 1313 001c 0900      		.word	9
 1314 001e 0A00      		.word	10
 1315 0020 0B00      		.word	11
 1316 0022 0C00      		.word	12
 1317 0024 0D00      		.word	13
 1318 0026 0E00      		.word	14
 1319 0028 0F00      		.word	15
 1320 002a 1000      		.word	16
 1321 002c 1100      		.word	17
 1322 002e 1200      		.word	18
 1323 0030 1300      		.word	19
 1324 0032 1400      		.word	20
 1325 0034 1500      		.word	21
 1326 0036 1600      		.word	22
 1327 0038 1700      		.word	23
 1328 003a 1800      		.word	24
 1329 003c 1900      		.word	25
 1330 003e 1A00      		.word	26
 1331 0040 1B00      		.word	27
 1332 0042 1C00      		.word	28
 1333 0044 1D00      		.word	29
 1334 0046 1E00      		.word	30
 1335 0048 1F00      		.word	31
 1336 004a 2000      		.word	32
 1337 004c 2100      		.word	33
 1338 004e 2200      		.word	34
 1339 0050 2300      		.word	35
 1340 0052 2400      		.word	36
 1341 0054 2500      		.word	37
 1342 0056 2600      		.word	38
 1343 0058 2700      		.word	39
 1344 005a 2800      		.word	40
 1345 005c 2900      		.word	41
 1346 005e 2A00      		.word	42
 1347 0060 2B00      		.word	43
 1348 0062 2C00      		.word	44
 1349 0064 2D00      		.word	45
 1350 0066 2E00      		.word	46
 1351 0068 2F00      		.word	47
 1352 006a 3000      		.word	48
 1353 006c 3100      		.word	49
 1354 006e 3200      		.word	50
 1355 0070 3300      		.word	51
 1356 0072 3400      		.word	52
 1357 0074 3500      		.word	53
 1358 0076 3600      		.word	54
 1359 0078 3700      		.word	55
 1360 007a 3800      		.word	56
 1361 007c 3900      		.word	57
 1362 007e 3A00      		.word	58
 1363 0080 3B00      		.word	59
 1364 0082 3C00      		.word	60
 1365 0084 3D00      		.word	61
 1366 0086 3E00      		.word	62
 1367 0088 3F00      		.word	63
 1368 008a 4000      		.word	64
 1369 008c 4100      		.word	65
 1370 008e 4200      		.word	66
 1371 0090 4300      		.word	67
 1372 0092 4400      		.word	68
 1373 0094 4500      		.word	69
 1374 0096 4600      		.word	70
 1375 0098 4700      		.word	71
 1376 009a 4800      		.word	72
 1377 009c 4900      		.word	73
 1378 009e 4A00      		.word	74
 1379 00a0 4B00      		.word	75
 1380 00a2 4C00      		.word	76
 1381 00a4 4D00      		.word	77
 1382 00a6 4E00      		.word	78
 1383 00a8 4F00      		.word	79
 1384 00aa 5000      		.word	80
 1385 00ac 5100      		.word	81
 1386 00ae 5200      		.word	82
 1387 00b0 5300      		.word	83
 1388 00b2 5400      		.word	84
 1389 00b4 5500      		.word	85
 1390 00b6 5600      		.word	86
 1391 00b8 5700      		.word	87
 1392 00ba 5800      		.word	88
 1393 00bc 5900      		.word	89
 1394 00be 5A00      		.word	90
 1395 00c0 5B00      		.word	91
 1396 00c2 5C00      		.word	92
 1397 00c4 5D00      		.word	93
 1398 00c6 5E00      		.word	94
 1399 00c8 5F00      		.word	95
 1400 00ca 6000      		.word	96
 1401 00cc 6100      		.word	97
 1402 00ce 6200      		.word	98
 1403 00d0 6300      		.word	99
 1404 00d2 6400      		.word	100
 1405 00d4 6500      		.word	101
 1406 00d6 6600      		.word	102
 1407 00d8 6700      		.word	103
 1408 00da 6800      		.word	104
 1409 00dc 6900      		.word	105
 1410 00de 6A00      		.word	106
 1411 00e0 6B00      		.word	107
 1412 00e2 6C00      		.word	108
 1413 00e4 6D00      		.word	109
 1414 00e6 6E00      		.word	110
 1415 00e8 6F00      		.word	111
 1416 00ea 7000      		.word	112
 1417 00ec 7100      		.word	113
 1418 00ee 7200      		.word	114
 1419 00f0 7300      		.word	115
 1420 00f2 7400      		.word	116
 1421 00f4 7500      		.word	117
 1422 00f6 7600      		.word	118
 1423 00f8 7700      		.word	119
 1424 00fa 7800      		.word	120
 1425 00fc 7900      		.word	121
 1426 00fe 7A00      		.word	122
 1427 0100 7B00      		.word	123
 1428 0102 7C00      		.word	124
 1429 0104 7D00      		.word	125
 1430 0106 7E00      		.word	126
 1431 0108 7F00      		.word	127
 1432 010a 8000      		.word	128
 1433 010c 8100      		.word	129
 1434 010e 8200      		.word	130
 1435 0110 8300      		.word	131
 1436 0112 8400      		.word	132
 1437 0114 8500      		.word	133
 1438 0116 8600      		.word	134
 1439 0118 8700      		.word	135
 1440 011a 8800      		.word	136
 1441 011c 8900      		.word	137
 1442 011e 8A00      		.word	138
 1443 0120 8B00      		.word	139
 1444 0122 8C00      		.word	140
 1445 0124 8D00      		.word	141
 1446 0126 8E00      		.word	142
 1447 0128 8F00      		.word	143
 1448 012a 9000      		.word	144
 1449 012c 9100      		.word	145
 1450 012e 9200      		.word	146
 1451 0130 9300      		.word	147
 1452 0132 9400      		.word	148
 1453 0134 9500      		.word	149
 1454 0136 9600      		.word	150
 1455 0138 9700      		.word	151
 1456 013a 9800      		.word	152
 1457 013c 9900      		.word	153
 1458 013e 9A00      		.word	154
 1459 0140 9B00      		.word	155
 1460 0142 9C00      		.word	156
 1461 0144 9D00      		.word	157
 1462 0146 9E00      		.word	158
 1463 0148 9F00      		.word	159
 1464 014a A000      		.word	160
 1465 014c A100      		.word	161
 1466 014e A200      		.word	162
 1467 0150 A300      		.word	163
 1468 0152 A400      		.word	164
 1469 0154 A500      		.word	165
 1470 0156 A600      		.word	166
 1471 0158 A700      		.word	167
 1472 015a A800      		.word	168
 1473 015c A900      		.word	169
 1474 015e AA00      		.word	170
 1475 0160 AB00      		.word	171
 1476 0162 AC00      		.word	172
 1477 0164 AD00      		.word	173
 1478 0166 AE00      		.word	174
 1479 0168 AF00      		.word	175
 1480 016a B000      		.word	176
 1481 016c B100      		.word	177
 1482 016e B200      		.word	178
 1483 0170 B300      		.word	179
 1484 0172 B400      		.word	180
 1485 0174 B500      		.word	181
 1486 0176 B600      		.word	182
 1487 0178 B700      		.word	183
 1488 017a B800      		.word	184
 1489 017c B900      		.word	185
 1490 017e BA00      		.word	186
 1491 0180 BB00      		.word	187
 1492 0182 BC00      		.word	188
 1493 0184 BD00      		.word	189
 1494 0186 BE00      		.word	190
 1495 0188 BF00      		.word	191
 1496 018a C000      		.word	192
 1497 018c C100      		.word	193
 1498 018e C200      		.word	194
 1499 0190 C300      		.word	195
 1500 0192 C400      		.word	196
 1501 0194 C500      		.word	197
 1502 0196 C600      		.word	198
 1503 0198 C700      		.word	199
 1504 019a C800      		.word	200
 1505 019c C900      		.word	201
 1506 019e CA00      		.word	202
 1507 01a0 CB00      		.word	203
 1508 01a2 CC00      		.word	204
 1509 01a4 CD00      		.word	205
 1510 01a6 CE00      		.word	206
 1511 01a8 CF00      		.word	207
 1512 01aa D000      		.word	208
 1513 01ac D100      		.word	209
 1514 01ae D200      		.word	210
 1515 01b0 D300      		.word	211
 1516 01b2 D400      		.word	212
 1517 01b4 D500      		.word	213
 1518 01b6 D600      		.word	214
 1519 01b8 D700      		.word	215
 1520 01ba D800      		.word	216
 1521 01bc D900      		.word	217
 1522 01be DA00      		.word	218
 1523 01c0 DB00      		.word	219
 1524 01c2 DC00      		.word	220
 1525 01c4 DD00      		.word	221
 1526 01c6 DE00      		.word	222
 1527 01c8 DF00      		.word	223
 1528 01ca E000      		.word	224
 1529 01cc E100      		.word	225
 1530 01ce E200      		.word	226
 1531 01d0 E300      		.word	227
 1532 01d2 E400      		.word	228
 1533 01d4 E500      		.word	229
 1534 01d6 E600      		.word	230
 1535 01d8 E700      		.word	231
 1536 01da E800      		.word	232
 1537 01dc E900      		.word	233
 1538 01de EA00      		.word	234
 1539 01e0 EB00      		.word	235
 1540 01e2 EC00      		.word	236
 1541 01e4 ED00      		.word	237
 1542 01e6 EE00      		.word	238
 1543 01e8 EF00      		.word	239
 1544 01ea F000      		.word	240
 1545 01ec F100      		.word	241
 1546 01ee F200      		.word	242
 1547 01f0 F300      		.word	243
 1548 01f2 F400      		.word	244
 1549 01f4 F500      		.word	245
 1550 01f6 F600      		.word	246
 1551 01f8 F700      		.word	247
 1552 01fa F800      		.word	248
 1553 01fc F900      		.word	249
 1554 01fe FA00      		.word	250
 1555 0200 FB00      		.word	251
 1556               	.global	update
 1557               	.global	update
 1558               		.section .bss
 1561               	update:
 1562 0029 00        		.skip 1,0
 1563               	.global	times
 1564               	.global	times
 1567               	times:
 1568 002a 00        		.skip 1,0
 1673               	.Letext0:
DEFINED SYMBOLS
                            *ABS*:00000000 main.c
C:\Users\ADMINI~1\AppData\Local\Temp/cc8iaVnk.s:2      *ABS*:0000003f __SREG__
C:\Users\ADMINI~1\AppData\Local\Temp/cc8iaVnk.s:3      *ABS*:0000003e __SP_H__
C:\Users\ADMINI~1\AppData\Local\Temp/cc8iaVnk.s:4      *ABS*:0000003d __SP_L__
C:\Users\ADMINI~1\AppData\Local\Temp/cc8iaVnk.s:5      *ABS*:00000034 __CCP__
C:\Users\ADMINI~1\AppData\Local\Temp/cc8iaVnk.s:6      *ABS*:00000000 __tmp_reg__
C:\Users\ADMINI~1\AppData\Local\Temp/cc8iaVnk.s:7      *ABS*:00000001 __zero_reg__
C:\Users\ADMINI~1\AppData\Local\Temp/cc8iaVnk.s:18     .text:00000000 PortInit
C:\Users\ADMINI~1\AppData\Local\Temp/cc8iaVnk.s:53     .text:0000001e T1Init
C:\Users\ADMINI~1\AppData\Local\Temp/cc8iaVnk.s:74     .text:00000034 I1Init
C:\Users\ADMINI~1\AppData\Local\Temp/cc8iaVnk.s:89     .text:0000003c PCInit
C:\Users\ADMINI~1\AppData\Local\Temp/cc8iaVnk.s:113    .text:00000052 T0Init
C:\Users\ADMINI~1\AppData\Local\Temp/cc8iaVnk.s:135    .text:00000062 T2Init
C:\Users\ADMINI~1\AppData\Local\Temp/cc8iaVnk.s:155    .text:00000074 __vector_10
C:\Users\ADMINI~1\AppData\Local\Temp/cc8iaVnk.s:1286   .data:00000001 CaptStat
C:\Users\ADMINI~1\AppData\Local\Temp/cc8iaVnk.s:1274   .bss:00000024 speed
C:\Users\ADMINI~1\AppData\Local\Temp/cc8iaVnk.s:1567   .bss:0000002a times
C:\Users\ADMINI~1\AppData\Local\Temp/cc8iaVnk.s:1261   .bss:00000022 LastValue
C:\Users\ADMINI~1\AppData\Local\Temp/cc8iaVnk.s:1255   .bss:00000020 VelInte
C:\Users\ADMINI~1\AppData\Local\Temp/cc8iaVnk.s:1267   .data:00000000 stall
C:\Users\ADMINI~1\AppData\Local\Temp/cc8iaVnk.s:1561   .bss:00000029 update
C:\Users\ADMINI~1\AppData\Local\Temp/cc8iaVnk.s:262    .text:0000014a commut
C:\Users\ADMINI~1\AppData\Local\Temp/cc8iaVnk.s:1280   .bss:00000026 dir
C:\Users\ADMINI~1\AppData\Local\Temp/cc8iaVnk.s:820    .text:000003ca StartFun
C:\Users\ADMINI~1\AppData\Local\Temp/cc8iaVnk.s:950    .text:0000046e __vector_4
C:\Users\ADMINI~1\AppData\Local\Temp/cc8iaVnk.s:1005   .text:000004ca main
C:\Users\ADMINI~1\AppData\Local\Temp/cc8iaVnk.s:1293   .bss:00000027 value
C:\Users\ADMINI~1\AppData\Local\Temp/cc8iaVnk.s:1299   .data:00000002 porp
C:\Users\ADMINI~1\AppData\Local\Temp/cc8iaVnk.s:1243   .bss:00000000 tmpbuf
C:\Users\ADMINI~1\AppData\Local\Temp/cc8iaVnk.s:1249   .bss:00000010 StateLoTable

UNDEFINED SYMBOLS
__do_copy_data
__do_clear_bss
