   1               		.file	"main.c"
   2               	__SREG__ = 0x3f
   3               	__SP_H__ = 0x3e
   4               	__SP_L__ = 0x3d
   5               	__CCP__  = 0x34
   6               	__tmp_reg__ = 0
   7               	__zero_reg__ = 1
  15               	.Ltext0:
  16               	.global	PortInit
  18               	PortInit:
  19               	.LFB8:
  20               	.LM1:
  21               	/* prologue: function */
  22               	/* frame size = 0 */
  23               	.LM2:
  24 0000 8EE0      		ldi r24,lo8(14)
  25 0002 84B9      		out 36-32,r24
  26               	.LM3:
  27 0004 88E0      		ldi r24,lo8(8)
  28 0006 85B9      		out 37-32,r24
  29               	.LM4:
  30 0008 13B8      		out 35-32,__zero_reg__
  31               	.LM5:
  32 000a 85EE      		ldi r24,lo8(-27)
  33 000c 8AB9      		out 42-32,r24
  34               	.LM6:
  35 000e 81E6      		ldi r24,lo8(97)
  36 0010 8BB9      		out 43-32,r24
  37               	.LM7:
  38 0012 19B8      		out 41-32,__zero_reg__
  39               	.LM8:
  40 0014 80E3      		ldi r24,lo8(48)
  41 0016 87B9      		out 39-32,r24
  42               	.LM9:
  43 0018 88B9      		out 40-32,r24
  44               	.LM10:
  45 001a 16B8      		out 38-32,__zero_reg__
  46               	/* epilogue start */
  47               	.LM11:
  48 001c 0895      		ret
  49               	.LFE8:
  51               	.global	ADCInit
  53               	ADCInit:
  54               	.LFB9:
  55               	.LM12:
  56               	/* prologue: function */
  57               	/* frame size = 0 */
  58               	.LM13:
  59 001e 80E6      		ldi r24,lo8(96)
  60 0020 8093 7C00 		sts 124,r24
  61               	.LM14:
  62 0024 85E8      		ldi r24,lo8(-123)
  63 0026 8093 7A00 		sts 122,r24
  64               	.LM15:
  65 002a 1092 7B00 		sts 123,__zero_reg__
  66               	.LM16:
  67 002e 88EC      		ldi r24,lo8(-56)
  68 0030 8093 7E00 		sts 126,r24
  69               	/* epilogue start */
  70               	.LM17:
  71 0034 0895      		ret
  72               	.LFE9:
  74               	.global	AdConvert
  76               	AdConvert:
  77               	.LFB10:
  78               	.LM18:
  79               	.LVL0:
  80               	/* prologue: function */
  81               	/* frame size = 0 */
  82               	.LM19:
  83 0036 9091 7C00 		lds r25,124
  84 003a 982B      		or r25,r24
  85 003c 9093 7C00 		sts 124,r25
  86               	.LM20:
  87 0040 8091 7A00 		lds r24,122
  88               	.LVL1:
  89 0044 8064      		ori r24,lo8(64)
  90 0046 8093 7A00 		sts 122,r24
  91               	.L6:
  92               	.LM21:
  93 004a 8091 7A00 		lds r24,122
  94 004e 86FD      		sbrc r24,6
  95 0050 00C0      		rjmp .L6
  96               	.LM22:
  97 0052 8091 7C00 		lds r24,124
  98 0056 807F      		andi r24,lo8(-16)
  99 0058 8093 7C00 		sts 124,r24
 100               	.LM23:
 101 005c 8091 7900 		lds r24,121
 102               	.LM24:
 103 0060 90E0      		ldi r25,lo8(0)
 104               	/* epilogue start */
 105 0062 0895      		ret
 106               	.LFE10:
 108               	.global	T1Init
 110               	T1Init:
 111               	.LFB11:
 112               	.LM25:
 113               	/* prologue: function */
 114               	/* frame size = 0 */
 115               	.LM26:
 116 0064 82EC      		ldi r24,lo8(-62)
 117 0066 8093 8100 		sts 129,r24
 118               	.LM27:
 119 006a 80E2      		ldi r24,lo8(32)
 120 006c 8093 6F00 		sts 111,r24
 121               	.LM28:
 122 0070 1092 8500 		sts (132)+1,__zero_reg__
 123 0074 1092 8400 		sts 132,__zero_reg__
 124               	/* epilogue start */
 125               	.LM29:
 126 0078 0895      		ret
 127               	.LFE11:
 129               	.global	I1Init
 131               	I1Init:
 132               	.LFB12:
 133               	.LM30:
 134               	/* prologue: function */
 135               	/* frame size = 0 */
 136               	.LM31:
 137 007a 8CE0      		ldi r24,lo8(12)
 138 007c 8093 6900 		sts 105,r24
 139               	/* epilogue start */
 140               	.LM32:
 141 0080 0895      		ret
 142               	.LFE12:
 144               	.global	PCInit
 146               	PCInit:
 147               	.LFB13:
 148               	.LM33:
 149               	/* prologue: function */
 150               	/* frame size = 0 */
 151               	.LM34:
 152 0082 E8E6      		ldi r30,lo8(104)
 153 0084 F0E0      		ldi r31,hi8(104)
 154 0086 8081      		ld r24,Z
 155 0088 8260      		ori r24,lo8(2)
 156 008a 8083      		st Z,r24
 157               	.LM35:
 158 008c ECE6      		ldi r30,lo8(108)
 159 008e F0E0      		ldi r31,hi8(108)
 160 0090 8081      		ld r24,Z
 161 0092 8760      		ori r24,lo8(7)
 162 0094 8083      		st Z,r24
 163               	/* epilogue start */
 164               	.LM36:
 165 0096 0895      		ret
 166               	.LFE13:
 168               	.global	T0Init
 170               	T0Init:
 171               	.LFB14:
 172               	.LM37:
 173               	/* prologue: function */
 174               	/* frame size = 0 */
 175               	.LM38:
 176 0098 81EA      		ldi r24,lo8(-95)
 177 009a 84BD      		out 68-32,r24
 178               	.LM39:
 179 009c 81E0      		ldi r24,lo8(1)
 180 009e 85BD      		out 69-32,r24
 181               	.LM40:
 182 00a0 18BC      		out 72-32,__zero_reg__
 183 00a2 88B5      		in r24,72-32
 184 00a4 87BD      		out 71-32,r24
 185               	/* epilogue start */
 186               	.LM41:
 187 00a6 0895      		ret
 188               	.LFE14:
 190               	.global	T2Init
 192               	T2Init:
 193               	.LFB15:
 194               	.LM42:
 195               	/* prologue: function */
 196               	/* frame size = 0 */
 197               	.LM43:
 198 00a8 81E8      		ldi r24,lo8(-127)
 199 00aa 8093 B000 		sts 176,r24
 200               	.LM44:
 201 00ae 81E0      		ldi r24,lo8(1)
 202 00b0 8093 B100 		sts 177,r24
 203               	.LM45:
 204 00b4 1092 B300 		sts 179,__zero_reg__
 205               	/* epilogue start */
 206               	.LM46:
 207 00b8 0895      		ret
 208               	.LFE15:
 210               	.global	__vector_10
 212               	__vector_10:
 213               	.LFB16:
 214               	.LM47:
 215 00ba 1F92      		push __zero_reg__
 216 00bc 0F92      		push r0
 217 00be 0FB6      		in r0,__SREG__
 218 00c0 0F92      		push r0
 219 00c2 1124      		clr __zero_reg__
 220 00c4 2F93      		push r18
 221 00c6 3F93      		push r19
 222 00c8 4F93      		push r20
 223 00ca 8F93      		push r24
 224 00cc 9F93      		push r25
 225               	/* prologue: Signal */
 226               	/* frame size = 0 */
 227               	.LM48:
 228 00ce 8091 0000 		lds r24,CaptStat
 229 00d2 8823      		tst r24
 230 00d4 01F0      		breq .L20
 231               	.LM49:
 232 00d6 1092 0000 		sts CaptStat,__zero_reg__
 233               	.LM50:
 234 00da 82E8      		ldi r24,lo8(-126)
 235 00dc 8093 8100 		sts 129,r24
 236 00e0 1092 8500 		sts (132)+1,__zero_reg__
 237 00e4 1092 8400 		sts 132,__zero_reg__
 238 00e8 1092 8700 		sts (134)+1,__zero_reg__
 239 00ec 1092 8600 		sts 134,__zero_reg__
 240 00f0 00C0      		rjmp .L26
 241               	.L20:
 242               	.LM51:
 243 00f2 41E0      		ldi r20,lo8(1)
 244 00f4 4093 0000 		sts CaptStat,r20
 245               	.LM52:
 246 00f8 82EC      		ldi r24,lo8(-62)
 247 00fa 8093 8100 		sts 129,r24
 248 00fe 1092 8500 		sts (132)+1,__zero_reg__
 249 0102 1092 8400 		sts 132,__zero_reg__
 250               	.LM53:
 251 0106 85B1      		in r24,37-32
 252 0108 94E0      		ldi r25,lo8(4)
 253 010a 8927      		eor r24,r25
 254 010c 85B9      		out 37-32,r24
 255               	.LM54:
 256 010e 8091 8600 		lds r24,134
 257 0112 9091 8700 		lds r25,(134)+1
 258 0116 9093 0000 		sts (speed)+1,r25
 259 011a 8093 0000 		sts speed,r24
 260               	.LM55:
 261 011e 8091 0000 		lds r24,times
 262 0122 8F5F      		subi r24,lo8(-(1))
 263 0124 8093 0000 		sts times,r24
 264 0128 8150      		subi r24,lo8(-(-1))
 265 012a 8330      		cpi r24,lo8(3)
 266 012c 00F0      		brlo .L22
 267               	.LM56:
 268 012e 2091 0000 		lds r18,LastValue
 269 0132 3091 0000 		lds r19,(LastValue)+1
 270 0136 8091 0000 		lds r24,VelInte
 271 013a 9091 0000 		lds r25,(VelInte)+1
 272 013e 2817      		cp r18,r24
 273 0140 3907      		cpc r19,r25
 274 0142 01F4      		brne .L23
 275               	.LM57:
 276 0144 4093 0000 		sts stall,r20
 277 0148 00C0      		rjmp .L24
 278               	.L23:
 279               	.LM58:
 280 014a 8091 0000 		lds r24,VelInte
 281 014e 9091 0000 		lds r25,(VelInte)+1
 282 0152 9093 0000 		sts (LastValue)+1,r25
 283 0156 8093 0000 		sts LastValue,r24
 284               	.LM59:
 285 015a 1092 0000 		sts stall,__zero_reg__
 286               	.L24:
 287               	.LM60:
 288 015e 1092 0000 		sts times,__zero_reg__
 289               	.L22:
 290               	.LM61:
 291 0162 8091 0000 		lds r24,VelInte
 292 0166 9091 0000 		lds r25,(VelInte)+1
 293 016a 8156      		subi r24,lo8(-5535)
 294 016c 9A4E      		sbci r25,hi8(-5535)
 295 016e 00F0      		brlo .L25
 296               	.LM62:
 297 0170 1092 0000 		sts (VelInte)+1,__zero_reg__
 298 0174 1092 0000 		sts VelInte,__zero_reg__
 299               	.L25:
 300               	.LM63:
 301 0178 81E0      		ldi r24,lo8(1)
 302 017a 8093 0000 		sts update,r24
 303               	.L26:
 304               	/* epilogue start */
 305               	.LM64:
 306 017e 9F91      		pop r25
 307 0180 8F91      		pop r24
 308 0182 4F91      		pop r20
 309 0184 3F91      		pop r19
 310 0186 2F91      		pop r18
 311 0188 0F90      		pop r0
 312 018a 0FBE      		out __SREG__,r0
 313 018c 0F90      		pop r0
 314 018e 1F90      		pop __zero_reg__
 315 0190 1895      		reti
 316               	.LFE16:
 319               	commut:
 320               	.LFB19:
 321               	.LM65:
 322               	.LVL2:
 323               	/* prologue: function */
 324               	/* frame size = 0 */
 325 0192 982F      		mov r25,r24
 326               	.LM66:
 327 0194 8091 0000 		lds r24,dir
 328               	.LVL3:
 329 0198 8823      		tst r24
 330 019a 01F4      		brne .+2
 331 019c 00C0      		rjmp .L28
 332               	.LM67:
 333 019e 9330      		cpi r25,lo8(3)
 334 01a0 01F4      		brne .+2
 335 01a2 00C0      		rjmp .L32
 336 01a4 9430      		cpi r25,lo8(4)
 337 01a6 00F4      		brsh .L36
 338 01a8 9130      		cpi r25,lo8(1)
 339 01aa 01F4      		brne .+2
 340 01ac 00C0      		rjmp .L30
 341 01ae 9230      		cpi r25,lo8(2)
 342 01b0 01F0      		breq .+2
 343 01b2 00C0      		rjmp .L44
 344 01b4 00C0      		rjmp .L54
 345               	.L36:
 346 01b6 9530      		cpi r25,lo8(5)
 347 01b8 01F0      		breq .L34
 348 01ba 9530      		cpi r25,lo8(5)
 349 01bc 00F0      		brlo .L33
 350 01be 9630      		cpi r25,lo8(6)
 351 01c0 01F0      		breq .+2
 352 01c2 00C0      		rjmp .L44
 353 01c4 00C0      		rjmp .L55
 354               	.L34:
 355               	.LM68:
 356 01c6 84B5      		in r24,68-32
 357 01c8 8F70      		andi r24,lo8(15)
 358 01ca 84BD      		out 68-32,r24
 359 01cc 8091 B000 		lds r24,176
 360 01d0 8F73      		andi r24,lo8(63)
 361 01d2 8093 B000 		sts 176,r24
 362 01d6 589A      		sbi 43-32,0
 363 01d8 88B1      		in r24,40-32
 364 01da 8063      		ori r24,lo8(48)
 365 01dc 88B9      		out 40-32,r24
 366               	/* #APP */
 367               	 ;  233 "main.c" 1
 368 01de 0000      		nop
 369               	 ;  0 "" 2
 370               	/* #NOAPP */
 371 01e0 00C0      		rjmp .L53
 372               	.L33:
 373               	.LM69:
 374 01e2 84B5      		in r24,68-32
 375 01e4 8F70      		andi r24,lo8(15)
 376 01e6 84BD      		out 68-32,r24
 377 01e8 8091 B000 		lds r24,176
 378 01ec 8F73      		andi r24,lo8(63)
 379 01ee 8093 B000 		sts 176,r24
 380 01f2 589A      		sbi 43-32,0
 381 01f4 88B1      		in r24,40-32
 382 01f6 8063      		ori r24,lo8(48)
 383 01f8 88B9      		out 40-32,r24
 384               	/* #APP */
 385               	 ;  236 "main.c" 1
 386 01fa 0000      		nop
 387               	 ;  0 "" 2
 388               	/* #NOAPP */
 389 01fc 00C0      		rjmp .L52
 390               	.L55:
 391               	.LM70:
 392 01fe 84B5      		in r24,68-32
 393 0200 8F70      		andi r24,lo8(15)
 394 0202 84BD      		out 68-32,r24
 395 0204 8091 B000 		lds r24,176
 396 0208 8F73      		andi r24,lo8(63)
 397 020a 8093 B000 		sts 176,r24
 398 020e 589A      		sbi 43-32,0
 399 0210 88B1      		in r24,40-32
 400 0212 8063      		ori r24,lo8(48)
 401 0214 88B9      		out 40-32,r24
 402               	/* #APP */
 403               	 ;  239 "main.c" 1
 404 0216 0000      		nop
 405               	 ;  0 "" 2
 406               	/* #NOAPP */
 407 0218 5898      		cbi 43-32,0
 408 021a 00C0      		rjmp .L46
 409               	.L54:
 410               	.LM71:
 411 021c 84B5      		in r24,68-32
 412 021e 8F70      		andi r24,lo8(15)
 413 0220 84BD      		out 68-32,r24
 414 0222 8091 B000 		lds r24,176
 415 0226 8F73      		andi r24,lo8(63)
 416 0228 8093 B000 		sts 176,r24
 417 022c 589A      		sbi 43-32,0
 418 022e 88B1      		in r24,40-32
 419 0230 8063      		ori r24,lo8(48)
 420 0232 88B9      		out 40-32,r24
 421               	/* #APP */
 422               	 ;  242 "main.c" 1
 423 0234 0000      		nop
 424               	 ;  0 "" 2
 425               	/* #NOAPP */
 426 0236 00C0      		rjmp .L48
 427               	.L32:
 428               	.LM72:
 429 0238 84B5      		in r24,68-32
 430 023a 8F70      		andi r24,lo8(15)
 431 023c 84BD      		out 68-32,r24
 432 023e 8091 B000 		lds r24,176
 433 0242 8F73      		andi r24,lo8(63)
 434 0244 8093 B000 		sts 176,r24
 435 0248 589A      		sbi 43-32,0
 436 024a 88B1      		in r24,40-32
 437 024c 8063      		ori r24,lo8(48)
 438 024e 88B9      		out 40-32,r24
 439               	/* #APP */
 440               	 ;  245 "main.c" 1
 441 0250 0000      		nop
 442               	 ;  0 "" 2
 443               	/* #NOAPP */
 444 0252 00C0      		rjmp .L50
 445               	.L30:
 446               	.LM73:
 447 0254 84B5      		in r24,68-32
 448 0256 8F70      		andi r24,lo8(15)
 449 0258 84BD      		out 68-32,r24
 450 025a 8091 B000 		lds r24,176
 451 025e 8F73      		andi r24,lo8(63)
 452 0260 8093 B000 		sts 176,r24
 453 0264 589A      		sbi 43-32,0
 454 0266 88B1      		in r24,40-32
 455 0268 8063      		ori r24,lo8(48)
 456 026a 88B9      		out 40-32,r24
 457               	/* #APP */
 458               	 ;  248 "main.c" 1
 459 026c 0000      		nop
 460               	 ;  0 "" 2
 461               	/* #NOAPP */
 462               	.L51:
 463 026e 4498      		cbi 40-32,4
 464               	.L49:
 465 0270 84B5      		in r24,68-32
 466 0272 8068      		ori r24,lo8(-128)
 467 0274 00C0      		rjmp .L47
 468               	.L28:
 469               	.LM74:
 470 0276 9330      		cpi r25,lo8(3)
 471 0278 01F4      		brne .+2
 472 027a 00C0      		rjmp .L39
 473 027c 9430      		cpi r25,lo8(4)
 474 027e 00F4      		brsh .L43
 475 0280 9130      		cpi r25,lo8(1)
 476 0282 01F4      		brne .+2
 477 0284 00C0      		rjmp .L37
 478 0286 9230      		cpi r25,lo8(2)
 479 0288 01F0      		breq .+2
 480 028a 00C0      		rjmp .L44
 481 028c 00C0      		rjmp .L56
 482               	.L43:
 483 028e 9530      		cpi r25,lo8(5)
 484 0290 01F0      		breq .L41
 485 0292 9530      		cpi r25,lo8(5)
 486 0294 00F0      		brlo .L40
 487 0296 9630      		cpi r25,lo8(6)
 488 0298 01F0      		breq .+2
 489 029a 00C0      		rjmp .L44
 490 029c 00C0      		rjmp .L57
 491               	.L41:
 492               	.LM75:
 493 029e 84B5      		in r24,68-32
 494 02a0 8F70      		andi r24,lo8(15)
 495 02a2 84BD      		out 68-32,r24
 496 02a4 8091 B000 		lds r24,176
 497 02a8 8F73      		andi r24,lo8(63)
 498 02aa 8093 B000 		sts 176,r24
 499 02ae 589A      		sbi 43-32,0
 500 02b0 88B1      		in r24,40-32
 501 02b2 8063      		ori r24,lo8(48)
 502 02b4 88B9      		out 40-32,r24
 503               	/* #APP */
 504               	 ;  259 "main.c" 1
 505 02b6 0000      		nop
 506               	 ;  0 "" 2
 507               	/* #NOAPP */
 508               	.L48:
 509 02b8 4598      		cbi 40-32,5
 510               	.L46:
 511 02ba 8091 B000 		lds r24,176
 512 02be 8068      		ori r24,lo8(-128)
 513 02c0 8093 B000 		sts 176,r24
 514 02c4 0895      		ret
 515               	.L40:
 516               	.LM76:
 517 02c6 84B5      		in r24,68-32
 518 02c8 8F70      		andi r24,lo8(15)
 519 02ca 84BD      		out 68-32,r24
 520 02cc 8091 B000 		lds r24,176
 521 02d0 8F73      		andi r24,lo8(63)
 522 02d2 8093 B000 		sts 176,r24
 523 02d6 589A      		sbi 43-32,0
 524 02d8 88B1      		in r24,40-32
 525 02da 8063      		ori r24,lo8(48)
 526 02dc 88B9      		out 40-32,r24
 527               	/* #APP */
 528               	 ;  262 "main.c" 1
 529 02de 0000      		nop
 530               	 ;  0 "" 2
 531               	/* #NOAPP */
 532               	.L50:
 533 02e0 4598      		cbi 40-32,5
 534 02e2 00C0      		rjmp .L49
 535               	.L57:
 536               	.LM77:
 537 02e4 84B5      		in r24,68-32
 538 02e6 8F70      		andi r24,lo8(15)
 539 02e8 84BD      		out 68-32,r24
 540 02ea 8091 B000 		lds r24,176
 541 02ee 8F73      		andi r24,lo8(63)
 542 02f0 8093 B000 		sts 176,r24
 543 02f4 589A      		sbi 43-32,0
 544 02f6 88B1      		in r24,40-32
 545 02f8 8063      		ori r24,lo8(48)
 546 02fa 88B9      		out 40-32,r24
 547               	/* #APP */
 548               	 ;  265 "main.c" 1
 549 02fc 0000      		nop
 550               	 ;  0 "" 2
 551               	/* #NOAPP */
 552 02fe 00C0      		rjmp .L51
 553               	.L56:
 554               	.LM78:
 555 0300 84B5      		in r24,68-32
 556 0302 8F70      		andi r24,lo8(15)
 557 0304 84BD      		out 68-32,r24
 558 0306 8091 B000 		lds r24,176
 559 030a 8F73      		andi r24,lo8(63)
 560 030c 8093 B000 		sts 176,r24
 561 0310 589A      		sbi 43-32,0
 562 0312 88B1      		in r24,40-32
 563 0314 8063      		ori r24,lo8(48)
 564 0316 88B9      		out 40-32,r24
 565               	/* #APP */
 566               	 ;  268 "main.c" 1
 567 0318 0000      		nop
 568               	 ;  0 "" 2
 569               	/* #NOAPP */
 570               	.L53:
 571 031a 4498      		cbi 40-32,4
 572 031c 00C0      		rjmp .L45
 573               	.L39:
 574               	.LM79:
 575 031e 84B5      		in r24,68-32
 576 0320 8F70      		andi r24,lo8(15)
 577 0322 84BD      		out 68-32,r24
 578 0324 8091 B000 		lds r24,176
 579 0328 8F73      		andi r24,lo8(63)
 580 032a 8093 B000 		sts 176,r24
 581 032e 589A      		sbi 43-32,0
 582 0330 88B1      		in r24,40-32
 583 0332 8063      		ori r24,lo8(48)
 584 0334 88B9      		out 40-32,r24
 585               	/* #APP */
 586               	 ;  271 "main.c" 1
 587 0336 0000      		nop
 588               	 ;  0 "" 2
 589               	/* #NOAPP */
 590               	.L52:
 591 0338 5898      		cbi 43-32,0
 592               	.L45:
 593 033a 84B5      		in r24,68-32
 594 033c 8062      		ori r24,lo8(32)
 595               	.L47:
 596 033e 84BD      		out 68-32,r24
 597 0340 0895      		ret
 598               	.L37:
 599               	.LM80:
 600 0342 84B5      		in r24,68-32
 601 0344 8F70      		andi r24,lo8(15)
 602 0346 84BD      		out 68-32,r24
 603 0348 8091 B000 		lds r24,176
 604 034c 8F73      		andi r24,lo8(63)
 605 034e 8093 B000 		sts 176,r24
 606 0352 589A      		sbi 43-32,0
 607 0354 88B1      		in r24,40-32
 608 0356 8063      		ori r24,lo8(48)
 609 0358 88B9      		out 40-32,r24
 610               	/* #APP */
 611               	 ;  274 "main.c" 1
 612 035a 0000      		nop
 613               	 ;  0 "" 2
 614               	/* #NOAPP */
 615 035c 5898      		cbi 43-32,0
 616 035e 8091 B000 		lds r24,176
 617 0362 8068      		ori r24,lo8(-128)
 618 0364 8093 B000 		sts 176,r24
 619               	.L44:
 620 0368 0895      		ret
 621               	.LFE19:
 623               	.global	StartFun
 625               	StartFun:
 626               	.LFB18:
 627               	.LM81:
 628               	.LVL4:
 629 036a 0F93      		push r16
 630 036c 1F93      		push r17
 631 036e CF93      		push r28
 632 0370 DF93      		push r29
 633               	/* prologue: function */
 634               	/* frame size = 0 */
 635               	.LM82:
 636 0372 1092 0000 		sts times,__zero_reg__
 637 0376 1092 0000 		sts stall,__zero_reg__
 638               	.LM83:
 639 037a 8091 6800 		lds r24,104
 640               	.LVL5:
 641 037e 8C7F      		andi r24,lo8(-4)
 642 0380 8093 6800 		sts 104,r24
 643               	.LM84:
 644 0384 80EE      		ldi r24,lo8(-32)
 645 0386 8093 B300 		sts 179,r24
 646 038a 8091 B300 		lds r24,179
 647 038e 88BD      		out 72-32,r24
 648 0390 88B5      		in r24,72-32
 649 0392 87BD      		out 71-32,r24
 650               	.LM85:
 651 0394 8091 6800 		lds r24,104
 652 0398 8260      		ori r24,lo8(2)
 653 039a 8093 6800 		sts 104,r24
 654 039e 00EE      		ldi r16,lo8(-32)
 655               	.LVL6:
 656               	.LBB40:
 657               	.LBB41:
 658               	.LBB42:
 659               	.LBB43:
 660               	.LM86:
 661 03a0 C0E2      		ldi r28,lo8(20000)
 662 03a2 DEE4      		ldi r29,hi8(20000)
 663               	.LVL7:
 664               	.L63:
 665               	.LBE43:
 666               	.LBE42:
 667               	.LBE41:
 668               	.LBE40:
 669               	.LM87:
 670 03a4 10E0      		ldi r17,lo8(0)
 671               	.LVL8:
 672               	.L60:
 673               	.LM88:
 674 03a6 8091 0000 		lds r24,VelInte
 675 03aa 9091 0000 		lds r25,(VelInte)+1
 676               	.LVL9:
 677 03ae 0597      		sbiw r24,5
 678 03b0 00F4      		brsh .L59
 679               	.LM89:
 680 03b2 812F      		mov r24,r17
 681 03b4 00D0      		rcall commut
 682               	.LBB47:
 683               	.LBB46:
 684               	.LBB45:
 685               	.LBB44:
 686               	.LM90:
 687 03b6 CE01      		movw r24,r28
 688               	.LVL10:
 689               	/* #APP */
 690               	 ;  105 "c:/winavr-20100110/lib/gcc/../../avr/include/util/delay_basic.h" 1
 691 03b8 0197      		1: sbiw r24,1
 692 03ba 01F4      		brne 1b
 693               	 ;  0 "" 2
 694               	/* #NOAPP */
 695               	.LBE44:
 696               	.LBE45:
 697               	.LBE46:
 698               	.LBE47:
 699               	.LM91:
 700 03bc 1F5F      		subi r17,lo8(-(1))
 701 03be 1830      		cpi r17,lo8(8)
 702 03c0 01F4      		brne .L60
 703               	.LM92:
 704 03c2 0850      		subi r16,lo8(-(-8))
 705               	.LM93:
 706 03c4 0031      		cpi r16,lo8(16)
 707 03c6 01F4      		brne .L61
 708               	.LM94:
 709 03c8 8FEF      		ldi r24,lo8(-1)
 710               	.LVL11:
 711 03ca 8093 B300 		sts 179,r24
 712 03ce 8091 B300 		lds r24,179
 713 03d2 88BD      		out 72-32,r24
 714 03d4 88B5      		in r24,72-32
 715 03d6 87BD      		out 71-32,r24
 716 03d8 20E0      		ldi r18,lo8(0)
 717 03da 30E0      		ldi r19,hi8(0)
 718 03dc 00C0      		rjmp .L62
 719               	.LVL12:
 720               	.L61:
 721               	.LM95:
 722 03de 0093 B300 		sts 179,r16
 723 03e2 8091 B300 		lds r24,179
 724               	.LVL13:
 725 03e6 88BD      		out 72-32,r24
 726 03e8 88B5      		in r24,72-32
 727 03ea 87BD      		out 71-32,r24
 728 03ec 00C0      		rjmp .L63
 729               	.L59:
 730               	.LM96:
 731 03ee 21E0      		ldi r18,lo8(1)
 732 03f0 30E0      		ldi r19,hi8(1)
 733               	.L62:
 734               	.LM97:
 735 03f2 C901      		movw r24,r18
 736               	/* epilogue start */
 737 03f4 DF91      		pop r29
 738 03f6 CF91      		pop r28
 739 03f8 1F91      		pop r17
 740               	.LVL14:
 741 03fa 0F91      		pop r16
 742               	.LVL15:
 743 03fc 0895      		ret
 744               	.LFE18:
 746               	.global	__vector_4
 748               	__vector_4:
 749               	.LFB17:
 750               	.LM98:
 751 03fe 1F92      		push __zero_reg__
 752 0400 0F92      		push r0
 753 0402 0FB6      		in r0,__SREG__
 754 0404 0F92      		push r0
 755 0406 1124      		clr __zero_reg__
 756 0408 2F93      		push r18
 757 040a 3F93      		push r19
 758 040c 4F93      		push r20
 759 040e 5F93      		push r21
 760 0410 6F93      		push r22
 761 0412 7F93      		push r23
 762 0414 8F93      		push r24
 763 0416 9F93      		push r25
 764 0418 AF93      		push r26
 765 041a BF93      		push r27
 766 041c EF93      		push r30
 767 041e FF93      		push r31
 768               	/* prologue: Signal */
 769               	/* frame size = 0 */
 770               	.LM99:
 771 0420 8091 0000 		lds r24,VelInte
 772 0424 9091 0000 		lds r25,(VelInte)+1
 773 0428 0196      		adiw r24,1
 774 042a 9093 0000 		sts (VelInte)+1,r25
 775 042e 8093 0000 		sts VelInte,r24
 776               	.LM100:
 777 0432 86B1      		in r24,38-32
 778 0434 8770      		andi r24,lo8(7)
 779 0436 00D0      		rcall commut
 780               	/* epilogue start */
 781               	.LM101:
 782 0438 FF91      		pop r31
 783 043a EF91      		pop r30
 784 043c BF91      		pop r27
 785 043e AF91      		pop r26
 786 0440 9F91      		pop r25
 787 0442 8F91      		pop r24
 788 0444 7F91      		pop r23
 789 0446 6F91      		pop r22
 790 0448 5F91      		pop r21
 791 044a 4F91      		pop r20
 792 044c 3F91      		pop r19
 793 044e 2F91      		pop r18
 794 0450 0F90      		pop r0
 795 0452 0FBE      		out __SREG__,r0
 796 0454 0F90      		pop r0
 797 0456 1F90      		pop __zero_reg__
 798 0458 1895      		reti
 799               	.LFE17:
 801               	.global	main
 803               	main:
 804               	.LFB20:
 805               	.LM102:
 806 045a 7F92      		push r7
 807 045c 8F92      		push r8
 808 045e 9F92      		push r9
 809 0460 AF92      		push r10
 810 0462 BF92      		push r11
 811 0464 CF92      		push r12
 812 0466 DF92      		push r13
 813 0468 EF92      		push r14
 814 046a FF92      		push r15
 815 046c 0F93      		push r16
 816 046e 1F93      		push r17
 817 0470 CF93      		push r28
 818 0472 DF93      		push r29
 819               	/* prologue: function */
 820               	/* frame size = 0 */
 821               	.LM103:
 822               	/* #APP */
 823               	 ;  293 "main.c" 1
 824 0474 F894      		cli
 825               	 ;  0 "" 2
 826               	.LM104:
 827               	/* #NOAPP */
 828 0476 00D0      		rcall PortInit
 829               	.LM105:
 830 0478 299A      		sbi 37-32,1
 831 047a 88E8      		ldi r24,lo8(5000)
 832 047c 93E1      		ldi r25,hi8(5000)
 833               	.LVL16:
 834               	.LBB48:
 835               	.LBB49:
 836               	.LBB50:
 837               	.LBB51:
 838               	.LM106:
 839 047e 28EC      		ldi r18,lo8(200)
 840 0480 30E0      		ldi r19,hi8(200)
 841               	.L69:
 842 0482 F901      		movw r30,r18
 843               	.LVL17:
 844               	/* #APP */
 845               	 ;  105 "c:/winavr-20100110/lib/gcc/../../avr/include/util/delay_basic.h" 1
 846 0484 3197      		1: sbiw r30,1
 847 0486 01F4      		brne 1b
 848               	 ;  0 "" 2
 849               	/* #NOAPP */
 850               	.LBE51:
 851               	.LBE50:
 852               	.LM107:
 853 0488 0197      		sbiw r24,1
 854               	.LM108:
 855 048a 01F4      		brne .L69
 856               	.LBE49:
 857               	.LBE48:
 858               	.LM109:
 859 048c 2998      		cbi 37-32,1
 860 048e 88E8      		ldi r24,lo8(5000)
 861 0490 93E1      		ldi r25,hi8(5000)
 862               	.LVL18:
 863               	.LBB52:
 864               	.LBB53:
 865               	.LBB54:
 866               	.LBB55:
 867               	.LM110:
 868 0492 28EC      		ldi r18,lo8(200)
 869 0494 30E0      		ldi r19,hi8(200)
 870               	.L70:
 871 0496 F901      		movw r30,r18
 872               	.LVL19:
 873               	/* #APP */
 874               	 ;  105 "c:/winavr-20100110/lib/gcc/../../avr/include/util/delay_basic.h" 1
 875 0498 3197      		1: sbiw r30,1
 876 049a 01F4      		brne 1b
 877               	 ;  0 "" 2
 878               	/* #NOAPP */
 879               	.LBE55:
 880               	.LBE54:
 881               	.LM111:
 882 049c 0197      		sbiw r24,1
 883               	.LM112:
 884 049e 01F4      		brne .L70
 885               	.LBE53:
 886               	.LBE52:
 887               	.LM113:
 888 04a0 299A      		sbi 37-32,1
 889 04a2 88E8      		ldi r24,lo8(5000)
 890 04a4 93E1      		ldi r25,hi8(5000)
 891               	.LVL20:
 892               	.LBB56:
 893               	.LBB57:
 894               	.LBB58:
 895               	.LBB59:
 896               	.LM114:
 897 04a6 28EC      		ldi r18,lo8(200)
 898 04a8 30E0      		ldi r19,hi8(200)
 899               	.L71:
 900 04aa F901      		movw r30,r18
 901               	.LVL21:
 902               	/* #APP */
 903               	 ;  105 "c:/winavr-20100110/lib/gcc/../../avr/include/util/delay_basic.h" 1
 904 04ac 3197      		1: sbiw r30,1
 905 04ae 01F4      		brne 1b
 906               	 ;  0 "" 2
 907               	/* #NOAPP */
 908               	.LBE59:
 909               	.LBE58:
 910               	.LM115:
 911 04b0 0197      		sbiw r24,1
 912               	.LM116:
 913 04b2 01F4      		brne .L71
 914               	.LBE57:
 915               	.LBE56:
 916               	.LM117:
 917 04b4 2998      		cbi 37-32,1
 918               	.LBB60:
 919               	.LBB61:
 920               	.LM118:
 921 04b6 8091 6800 		lds r24,104
 922               	.LVL22:
 923 04ba 8260      		ori r24,lo8(2)
 924 04bc 8093 6800 		sts 104,r24
 925               	.LM119:
 926 04c0 8091 6C00 		lds r24,108
 927 04c4 8760      		ori r24,lo8(7)
 928 04c6 8093 6C00 		sts 108,r24
 929               	.LBE61:
 930               	.LBE60:
 931               	.LBB62:
 932               	.LBB63:
 933               	.LM120:
 934 04ca 81EA      		ldi r24,lo8(-95)
 935 04cc 84BD      		out 68-32,r24
 936               	.LM121:
 937 04ce 91E0      		ldi r25,lo8(1)
 938 04d0 95BD      		out 69-32,r25
 939               	.LM122:
 940 04d2 18BC      		out 72-32,__zero_reg__
 941 04d4 88B5      		in r24,72-32
 942 04d6 87BD      		out 71-32,r24
 943               	.LBE63:
 944               	.LBE62:
 945               	.LBB64:
 946               	.LBB65:
 947               	.LM123:
 948 04d8 81E8      		ldi r24,lo8(-127)
 949 04da 8093 B000 		sts 176,r24
 950               	.LM124:
 951 04de 9093 B100 		sts 177,r25
 952               	.LM125:
 953 04e2 1092 B300 		sts 179,__zero_reg__
 954               	.LBE65:
 955               	.LBE64:
 956               	.LBB66:
 957               	.LBB67:
 958               	.LM126:
 959 04e6 82EC      		ldi r24,lo8(-62)
 960 04e8 8093 8100 		sts 129,r24
 961               	.LM127:
 962 04ec 80E2      		ldi r24,lo8(32)
 963 04ee 8093 6F00 		sts 111,r24
 964               	.LM128:
 965 04f2 1092 8500 		sts (132)+1,__zero_reg__
 966 04f6 1092 8400 		sts 132,__zero_reg__
 967               	.LBE67:
 968               	.LBE66:
 969               	.LBB68:
 970               	.LBB69:
 971               	.LM129:
 972 04fa 80E6      		ldi r24,lo8(96)
 973 04fc 8093 7C00 		sts 124,r24
 974               	.LM130:
 975 0500 85E8      		ldi r24,lo8(-123)
 976 0502 8093 7A00 		sts 122,r24
 977               	.LM131:
 978 0506 1092 7B00 		sts 123,__zero_reg__
 979               	.LM132:
 980 050a 88EC      		ldi r24,lo8(-56)
 981 050c 8093 7E00 		sts 126,r24
 982               	.LBE69:
 983               	.LBE68:
 984               	.LM133:
 985               	/* #APP */
 986               	 ;  307 "main.c" 1
 987 0510 7894      		sei
 988               	 ;  0 "" 2
 989               	/* #NOAPP */
 990 0512 CC24      		clr r12
 991 0514 DD24      		clr r13
 992               	.LVL23:
 993 0516 9924      		clr r9
 994               	.LVL24:
 995 0518 EE24      		clr r14
 996 051a FF24      		clr r15
 997               	.LVL25:
 998 051c 00E0      		ldi r16,lo8(0)
 999 051e 10E0      		ldi r17,hi8(0)
 1000               	.LVL26:
 1001               	.LM134:
 1002 0520 5FEF      		ldi r21,lo8(255)
 1003 0522 A52E      		mov r10,r21
 1004 0524 B12C      		mov r11,__zero_reg__
 1005               	.LM135:
 1006 0526 7724      		clr r7
 1007 0528 7394      		inc r7
 1008               	.LM136:
 1009 052a 8824      		clr r8
 1010 052c 8A94      		dec r8
 1011 052e 00C0      		rjmp .L95
 1012               	.LVL27:
 1013               	.L88:
 1014               	.LM137:
 1015 0530 0894      		sec
 1016 0532 C11C      		adc r12,__zero_reg__
 1017 0534 D11C      		adc r13,__zero_reg__
 1018               	.LVL28:
 1019               	.L95:
 1020               	.LM138:
 1021 0536 8091 0000 		lds r24,update
 1022 053a 8823      		tst r24
 1023 053c 01F4      		brne .+2
 1024 053e 00C0      		rjmp .L73
 1025 0540 9920      		tst r9
 1026 0542 01F4      		brne .+2
 1027 0544 00C0      		rjmp .L73
 1028               	.LM139:
 1029 0546 1092 0000 		sts update,__zero_reg__
 1030               	.LM140:
 1031 054a 2091 0000 		lds r18,speed
 1032 054e 3091 0000 		lds r19,(speed)+1
 1033 0552 2C5D      		subi r18,lo8(-(-1500))
 1034 0554 3540      		sbci r19,hi8(-(-1500))
 1035               	.LM141:
 1036 0556 37FD      		sbrc r19,7
 1037 0558 00C0      		rjmp .L74
 1038               	.LM142:
 1039 055a C901      		movw r24,r18
 1040 055c 9595      		asr r25
 1041 055e 8795      		ror r24
 1042 0560 9093 0000 		sts (value)+1,r25
 1043 0564 8093 0000 		sts value,r24
 1044               	.LM143:
 1045 0568 8F3F      		cpi r24,255
 1046 056a 9105      		cpc r25,__zero_reg__
 1047 056c 01F0      		breq .L75
 1048 056e 04F0      		brlt .L75
 1049               	.LM144:
 1050 0570 B092 0000 		sts (value)+1,r11
 1051 0574 A092 0000 		sts value,r10
 1052               	.L75:
 1053               	.LM145:
 1054 0578 8091 0000 		lds r24,value
 1055 057c 9091 0000 		lds r25,(value)+1
 1056 0580 F501      		movw r30,r10
 1057               	.LVL29:
 1058 0582 E81B      		sub r30,r24
 1059 0584 F90B      		sbc r31,r25
 1060 0586 E050      		subi r30,lo8(-(porp))
 1061 0588 F040      		sbci r31,hi8(-(porp))
 1062 058a 8081      		ld r24,Z
 1063 058c 8093 0000 		sts value,r24
 1064 0590 1092 0000 		sts value+1,__zero_reg__
 1065               	.LM146:
 1066 0594 1092 0000 		sts dir,__zero_reg__
 1067 0598 00C0      		rjmp .L76
 1068               	.LVL30:
 1069               	.L74:
 1070               	.LM147:
 1071 059a 8827      		clr r24
 1072 059c 9927      		clr r25
 1073 059e 821B      		sub r24,r18
 1074 05a0 930B      		sbc r25,r19
 1075 05a2 9595      		asr r25
 1076 05a4 8795      		ror r24
 1077 05a6 9093 0000 		sts (value)+1,r25
 1078 05aa 8093 0000 		sts value,r24
 1079               	.LM148:
 1080 05ae 8F3F      		cpi r24,255
 1081 05b0 9105      		cpc r25,__zero_reg__
 1082 05b2 01F0      		breq .L77
 1083 05b4 04F0      		brlt .L77
 1084               	.LM149:
 1085 05b6 B092 0000 		sts (value)+1,r11
 1086 05ba A092 0000 		sts value,r10
 1087               	.L77:
 1088               	.LM150:
 1089 05be 8091 0000 		lds r24,value
 1090 05c2 9091 0000 		lds r25,(value)+1
 1091 05c6 F501      		movw r30,r10
 1092               	.LVL31:
 1093 05c8 E81B      		sub r30,r24
 1094 05ca F90B      		sbc r31,r25
 1095 05cc E050      		subi r30,lo8(-(porp))
 1096 05ce F040      		sbci r31,hi8(-(porp))
 1097 05d0 8081      		ld r24,Z
 1098 05d2 8093 0000 		sts value,r24
 1099 05d6 1092 0000 		sts value+1,__zero_reg__
 1100               	.LM151:
 1101 05da 7092 0000 		sts dir,r7
 1102               	.L76:
 1103               	.LM152:
 1104 05de 8091 0000 		lds r24,stall
 1105 05e2 8823      		tst r24
 1106 05e4 01F0      		breq .L78
 1107 05e6 8091 0000 		lds r24,value
 1108 05ea 9091 0000 		lds r25,(value)+1
 1109 05ee 8F3F      		cpi r24,255
 1110 05f0 9105      		cpc r25,__zero_reg__
 1111 05f2 04F4      		brge .L78
 1112               	.L90:
 1113               	.LM153:
 1114 05f4 80E8      		ldi r24,lo8(-128)
 1115 05f6 00D0      		rcall StartFun
 1116 05f8 892B      		or r24,r25
 1117 05fa 01F0      		breq .L90
 1118               	.LM154:
 1119 05fc 8091 0000 		lds r24,value
 1120 0600 8093 B300 		sts 179,r24
 1121 0604 8091 B300 		lds r24,179
 1122 0608 88BD      		out 72-32,r24
 1123 060a 88B5      		in r24,72-32
 1124 060c 87BD      		out 71-32,r24
 1125               	.L78:
 1126               	.LM155:
 1127 060e 8091 0000 		lds r24,value
 1128 0612 8093 B300 		sts 179,r24
 1129 0616 8091 B300 		lds r24,179
 1130 061a 88BD      		out 72-32,r24
 1131 061c 88B5      		in r24,72-32
 1132 061e 87BD      		out 71-32,r24
 1133 0620 CC24      		clr r12
 1134 0622 DD24      		clr r13
 1135               	.LVL32:
 1136               	.L73:
 1137               	.LM156:
 1138 0624 83E0      		ldi r24,lo8(3)
 1139 0626 00D0      		rcall AdConvert
 1140               	.LVL33:
 1141 0628 EC01      		movw r28,r24
 1142               	.LM157:
 1143 062a 86E0      		ldi r24,lo8(6)
 1144 062c 00D0      		rcall AdConvert
 1145               	.LM158:
 1146 062e 880F      		lsl r24
 1147 0630 991F      		rol r25
 1148 0632 880F      		lsl r24
 1149 0634 991F      		rol r25
 1150 0636 815D      		subi r24,lo8(721)
 1151 0638 9240      		sbci r25,hi8(721)
 1152 063a 00F0      		brlo .L80
 1153               	.LM159:
 1154 063c 82E0      		ldi r24,hi8(651)
 1155 063e 0B38      		cpi r16,lo8(651)
 1156 0640 1807      		cpc r17,r24
 1157 0642 04F4      		brge .L81
 1158 0644 0F5F      		subi r16,lo8(-(1))
 1159 0646 1F4F      		sbci r17,hi8(-(1))
 1160 0648 00C0      		rjmp .L82
 1161               	.L81:
 1162               	.LM160:
 1163 064a 299A      		sbi 37-32,1
 1164               	.LM161:
 1165 064c 8092 B300 		sts 179,r8
 1166 0650 8091 B300 		lds r24,179
 1167 0654 88BD      		out 72-32,r24
 1168 0656 88B5      		in r24,72-32
 1169 0658 87BD      		out 71-32,r24
 1170 065a 9924      		clr r9
 1171 065c 00C0      		rjmp .L96
 1172               	.L80:
 1173               	.LM162:
 1174 065e 21EB      		ldi r18,hi8(-20000)
 1175 0660 003E      		cpi r16,lo8(-20000)
 1176 0662 1207      		cpc r17,r18
 1177 0664 04F0      		brlt .L83
 1178 0666 0150      		subi r16,lo8(-(-1))
 1179 0668 1040      		sbci r17,hi8(-(-1))
 1180 066a 00C0      		rjmp .L82
 1181               	.L83:
 1182               	.LM163:
 1183 066c 2998      		cbi 37-32,1
 1184 066e 9924      		clr r9
 1185 0670 9394      		inc r9
 1186               	.L96:
 1187 0672 00E0      		ldi r16,lo8(0)
 1188 0674 10E0      		ldi r17,hi8(0)
 1189               	.L82:
 1190               	.LM164:
 1191 0676 CC0F      		lsl r28
 1192 0678 DD1F      		rol r29
 1193 067a CC0F      		lsl r28
 1194 067c DD1F      		rol r29
 1195 067e CA56      		subi r28,lo8(362)
 1196 0680 D140      		sbci r29,hi8(362)
 1197 0682 00F4      		brsh .L84
 1198               	.LM165:
 1199 0684 21ED      		ldi r18,lo8(2001)
 1200 0686 E216      		cp r14,r18
 1201 0688 27E0      		ldi r18,hi8(2001)
 1202 068a F206      		cpc r15,r18
 1203 068c 04F4      		brge .L85
 1204 068e 0894      		sec
 1205 0690 E11C      		adc r14,__zero_reg__
 1206 0692 F11C      		adc r15,__zero_reg__
 1207 0694 00C0      		rjmp .L86
 1208               	.L85:
 1209               	.LM166:
 1210 0696 5A9A      		sbi 43-32,2
 1211 0698 00C0      		rjmp .L97
 1212               	.L84:
 1213               	.LM167:
 1214 069a 80E3      		ldi r24,lo8(-2000)
 1215 069c E816      		cp r14,r24
 1216 069e 88EF      		ldi r24,hi8(-2000)
 1217 06a0 F806      		cpc r15,r24
 1218 06a2 04F0      		brlt .L87
 1219 06a4 0894      		sec
 1220 06a6 E108      		sbc r14,__zero_reg__
 1221 06a8 F108      		sbc r15,__zero_reg__
 1222 06aa 00C0      		rjmp .L86
 1223               	.L87:
 1224               	.LM168:
 1225 06ac 5A98      		cbi 43-32,2
 1226               	.L97:
 1227 06ae EE24      		clr r14
 1228 06b0 FF24      		clr r15
 1229               	.L86:
 1230               	.LM169:
 1231 06b2 21EE      		ldi r18,lo8(12001)
 1232 06b4 C216      		cp r12,r18
 1233 06b6 2EE2      		ldi r18,hi8(12001)
 1234 06b8 D206      		cpc r13,r18
 1235 06ba 00F4      		brsh .+2
 1236 06bc 00C0      		rjmp .L88
 1237               	.LM170:
 1238 06be 8092 B300 		sts 179,r8
 1239 06c2 8091 B300 		lds r24,179
 1240 06c6 88BD      		out 72-32,r24
 1241 06c8 88B5      		in r24,72-32
 1242 06ca 87BD      		out 71-32,r24
 1243 06cc CC24      		clr r12
 1244 06ce DD24      		clr r13
 1245 06d0 00C0      		rjmp .L95
 1246               	.LFE20:
 1248               	.global	StateLoTable
 1249               	.global	StateLoTable
 1250               		.section .bss
 1253               	StateLoTable:
 1254 0000 0000 0000 		.skip 16,0
 1254      0000 0000 
 1254      0000 0000 
 1254      0000 0000 
 1255               	.global	VelInte
 1256               	.global	VelInte
 1259               	VelInte:
 1260 0010 0000      		.skip 2,0
 1261               	.global	LastValue
 1262               	.global	LastValue
 1265               	LastValue:
 1266 0012 0000      		.skip 2,0
 1267               	.global	stall
 1268               		.data
 1271               	stall:
 1272 0000 01        		.byte	1
 1273               	.global	speed
 1274               	.global	speed
 1275               		.section .bss
 1278               	speed:
 1279 0014 0000      		.skip 2,0
 1280               	.global	dir
 1281               	.global	dir
 1284               	dir:
 1285 0016 00        		.skip 1,0
 1286               	.global	CaptStat
 1287               		.data
 1290               	CaptStat:
 1291 0001 01        		.byte	1
 1292               	.global	value
 1293               	.global	value
 1294               		.section .bss
 1297               	value:
 1298 0017 0000      		.skip 2,0
 1299               	.global	porp
 1300               		.data
 1303               	porp:
 1304 0002 01        		.byte	1
 1305 0003 02        		.byte	2
 1306 0004 03        		.byte	3
 1307 0005 04        		.byte	4
 1308 0006 05        		.byte	5
 1309 0007 06        		.byte	6
 1310 0008 06        		.byte	6
 1311 0009 07        		.byte	7
 1312 000a 07        		.byte	7
 1313 000b 08        		.byte	8
 1314 000c 08        		.byte	8
 1315 000d 09        		.byte	9
 1316 000e 09        		.byte	9
 1317 000f 0A        		.byte	10
 1318 0010 0A        		.byte	10
 1319 0011 0B        		.byte	11
 1320 0012 0C        		.byte	12
 1321 0013 0D        		.byte	13
 1322 0014 0E        		.byte	14
 1323 0015 0F        		.byte	15
 1324 0016 10        		.byte	16
 1325 0017 11        		.byte	17
 1326 0018 12        		.byte	18
 1327 0019 13        		.byte	19
 1328 001a 14        		.byte	20
 1329 001b 15        		.byte	21
 1330 001c 16        		.byte	22
 1331 001d 17        		.byte	23
 1332 001e 18        		.byte	24
 1333 001f 19        		.byte	25
 1334 0020 1A        		.byte	26
 1335 0021 1B        		.byte	27
 1336 0022 1C        		.byte	28
 1337 0023 1D        		.byte	29
 1338 0024 1E        		.byte	30
 1339 0025 1F        		.byte	31
 1340 0026 20        		.byte	32
 1341 0027 21        		.byte	33
 1342 0028 22        		.byte	34
 1343 0029 23        		.byte	35
 1344 002a 24        		.byte	36
 1345 002b 25        		.byte	37
 1346 002c 26        		.byte	38
 1347 002d 27        		.byte	39
 1348 002e 28        		.byte	40
 1349 002f 29        		.byte	41
 1350 0030 2A        		.byte	42
 1351 0031 2B        		.byte	43
 1352 0032 2C        		.byte	44
 1353 0033 2D        		.byte	45
 1354 0034 2E        		.byte	46
 1355 0035 2F        		.byte	47
 1356 0036 30        		.byte	48
 1357 0037 31        		.byte	49
 1358 0038 32        		.byte	50
 1359 0039 33        		.byte	51
 1360 003a 34        		.byte	52
 1361 003b 35        		.byte	53
 1362 003c 36        		.byte	54
 1363 003d 37        		.byte	55
 1364 003e 38        		.byte	56
 1365 003f 39        		.byte	57
 1366 0040 3A        		.byte	58
 1367 0041 3B        		.byte	59
 1368 0042 3C        		.byte	60
 1369 0043 3D        		.byte	61
 1370 0044 3E        		.byte	62
 1371 0045 3F        		.byte	63
 1372 0046 40        		.byte	64
 1373 0047 41        		.byte	65
 1374 0048 42        		.byte	66
 1375 0049 43        		.byte	67
 1376 004a 44        		.byte	68
 1377 004b 45        		.byte	69
 1378 004c 46        		.byte	70
 1379 004d 47        		.byte	71
 1380 004e 48        		.byte	72
 1381 004f 49        		.byte	73
 1382 0050 4A        		.byte	74
 1383 0051 4B        		.byte	75
 1384 0052 4C        		.byte	76
 1385 0053 4D        		.byte	77
 1386 0054 4E        		.byte	78
 1387 0055 4F        		.byte	79
 1388 0056 50        		.byte	80
 1389 0057 51        		.byte	81
 1390 0058 52        		.byte	82
 1391 0059 53        		.byte	83
 1392 005a 54        		.byte	84
 1393 005b 55        		.byte	85
 1394 005c 56        		.byte	86
 1395 005d 57        		.byte	87
 1396 005e 58        		.byte	88
 1397 005f 59        		.byte	89
 1398 0060 5A        		.byte	90
 1399 0061 5B        		.byte	91
 1400 0062 5C        		.byte	92
 1401 0063 5D        		.byte	93
 1402 0064 5E        		.byte	94
 1403 0065 5F        		.byte	95
 1404 0066 60        		.byte	96
 1405 0067 61        		.byte	97
 1406 0068 62        		.byte	98
 1407 0069 63        		.byte	99
 1408 006a 64        		.byte	100
 1409 006b 65        		.byte	101
 1410 006c 66        		.byte	102
 1411 006d 67        		.byte	103
 1412 006e 68        		.byte	104
 1413 006f 69        		.byte	105
 1414 0070 6A        		.byte	106
 1415 0071 6B        		.byte	107
 1416 0072 6C        		.byte	108
 1417 0073 6D        		.byte	109
 1418 0074 6E        		.byte	110
 1419 0075 6F        		.byte	111
 1420 0076 70        		.byte	112
 1421 0077 71        		.byte	113
 1422 0078 72        		.byte	114
 1423 0079 73        		.byte	115
 1424 007a 74        		.byte	116
 1425 007b 75        		.byte	117
 1426 007c 76        		.byte	118
 1427 007d 77        		.byte	119
 1428 007e 78        		.byte	120
 1429 007f 79        		.byte	121
 1430 0080 7A        		.byte	122
 1431 0081 7B        		.byte	123
 1432 0082 7C        		.byte	124
 1433 0083 7D        		.byte	125
 1434 0084 7E        		.byte	126
 1435 0085 7F        		.byte	127
 1436 0086 80        		.byte	-128
 1437 0087 81        		.byte	-127
 1438 0088 82        		.byte	-126
 1439 0089 83        		.byte	-125
 1440 008a 84        		.byte	-124
 1441 008b 85        		.byte	-123
 1442 008c 86        		.byte	-122
 1443 008d 87        		.byte	-121
 1444 008e 88        		.byte	-120
 1445 008f 89        		.byte	-119
 1446 0090 8A        		.byte	-118
 1447 0091 8B        		.byte	-117
 1448 0092 8C        		.byte	-116
 1449 0093 8D        		.byte	-115
 1450 0094 8E        		.byte	-114
 1451 0095 8F        		.byte	-113
 1452 0096 90        		.byte	-112
 1453 0097 91        		.byte	-111
 1454 0098 92        		.byte	-110
 1455 0099 93        		.byte	-109
 1456 009a 94        		.byte	-108
 1457 009b 95        		.byte	-107
 1458 009c 96        		.byte	-106
 1459 009d 97        		.byte	-105
 1460 009e 98        		.byte	-104
 1461 009f 99        		.byte	-103
 1462 00a0 9A        		.byte	-102
 1463 00a1 9B        		.byte	-101
 1464 00a2 9C        		.byte	-100
 1465 00a3 9D        		.byte	-99
 1466 00a4 9E        		.byte	-98
 1467 00a5 9F        		.byte	-97
 1468 00a6 A0        		.byte	-96
 1469 00a7 A1        		.byte	-95
 1470 00a8 A2        		.byte	-94
 1471 00a9 A3        		.byte	-93
 1472 00aa A4        		.byte	-92
 1473 00ab A5        		.byte	-91
 1474 00ac A6        		.byte	-90
 1475 00ad A7        		.byte	-89
 1476 00ae A8        		.byte	-88
 1477 00af A9        		.byte	-87
 1478 00b0 AA        		.byte	-86
 1479 00b1 AB        		.byte	-85
 1480 00b2 AC        		.byte	-84
 1481 00b3 AD        		.byte	-83
 1482 00b4 AE        		.byte	-82
 1483 00b5 AF        		.byte	-81
 1484 00b6 B0        		.byte	-80
 1485 00b7 B1        		.byte	-79
 1486 00b8 B2        		.byte	-78
 1487 00b9 B3        		.byte	-77
 1488 00ba B4        		.byte	-76
 1489 00bb B5        		.byte	-75
 1490 00bc B6        		.byte	-74
 1491 00bd B7        		.byte	-73
 1492 00be B8        		.byte	-72
 1493 00bf B9        		.byte	-71
 1494 00c0 BA        		.byte	-70
 1495 00c1 BB        		.byte	-69
 1496 00c2 BC        		.byte	-68
 1497 00c3 BD        		.byte	-67
 1498 00c4 BE        		.byte	-66
 1499 00c5 BF        		.byte	-65
 1500 00c6 C0        		.byte	-64
 1501 00c7 C1        		.byte	-63
 1502 00c8 C2        		.byte	-62
 1503 00c9 C3        		.byte	-61
 1504 00ca C4        		.byte	-60
 1505 00cb C5        		.byte	-59
 1506 00cc C6        		.byte	-58
 1507 00cd C7        		.byte	-57
 1508 00ce C8        		.byte	-56
 1509 00cf C9        		.byte	-55
 1510 00d0 CA        		.byte	-54
 1511 00d1 CB        		.byte	-53
 1512 00d2 CC        		.byte	-52
 1513 00d3 CD        		.byte	-51
 1514 00d4 CE        		.byte	-50
 1515 00d5 CF        		.byte	-49
 1516 00d6 D0        		.byte	-48
 1517 00d7 D1        		.byte	-47
 1518 00d8 D2        		.byte	-46
 1519 00d9 D3        		.byte	-45
 1520 00da D4        		.byte	-44
 1521 00db D5        		.byte	-43
 1522 00dc D6        		.byte	-42
 1523 00dd D7        		.byte	-41
 1524 00de D8        		.byte	-40
 1525 00df D9        		.byte	-39
 1526 00e0 DA        		.byte	-38
 1527 00e1 DB        		.byte	-37
 1528 00e2 DC        		.byte	-36
 1529 00e3 DD        		.byte	-35
 1530 00e4 DE        		.byte	-34
 1531 00e5 DF        		.byte	-33
 1532 00e6 E0        		.byte	-32
 1533 00e7 E1        		.byte	-31
 1534 00e8 E2        		.byte	-30
 1535 00e9 E3        		.byte	-29
 1536 00ea E4        		.byte	-28
 1537 00eb E5        		.byte	-27
 1538 00ec E6        		.byte	-26
 1539 00ed E7        		.byte	-25
 1540 00ee E8        		.byte	-24
 1541 00ef E9        		.byte	-23
 1542 00f0 EA        		.byte	-22
 1543 00f1 EB        		.byte	-21
 1544 00f2 EC        		.byte	-20
 1545 00f3 ED        		.byte	-19
 1546 00f4 EF        		.byte	-17
 1547 00f5 F1        		.byte	-15
 1548 00f6 F3        		.byte	-13
 1549 00f7 F5        		.byte	-11
 1550 00f8 F7        		.byte	-9
 1551 00f9 F9        		.byte	-7
 1552 00fa FB        		.byte	-5
 1553 00fb FD        		.byte	-3
 1554 00fc FF        		.byte	-1
 1555 00fd FF        		.byte	-1
 1556 00fe FF        		.byte	-1
 1557 00ff FF        		.byte	-1
 1558 0100 FF        		.byte	-1
 1559 0101 FF        		.byte	-1
 1560               	.global	update
 1561               	.global	update
 1562               		.section .bss
 1565               	update:
 1566 0019 00        		.skip 1,0
 1567               	.global	times
 1568               	.global	times
 1571               	times:
 1572 001a 00        		.skip 1,0
 1693               	.Letext0:
DEFINED SYMBOLS
                            *ABS*:00000000 main.c
C:\Users\ADMINI~1\AppData\Local\Temp/ccgec2Eo.s:2      *ABS*:0000003f __SREG__
C:\Users\ADMINI~1\AppData\Local\Temp/ccgec2Eo.s:3      *ABS*:0000003e __SP_H__
C:\Users\ADMINI~1\AppData\Local\Temp/ccgec2Eo.s:4      *ABS*:0000003d __SP_L__
C:\Users\ADMINI~1\AppData\Local\Temp/ccgec2Eo.s:5      *ABS*:00000034 __CCP__
C:\Users\ADMINI~1\AppData\Local\Temp/ccgec2Eo.s:6      *ABS*:00000000 __tmp_reg__
C:\Users\ADMINI~1\AppData\Local\Temp/ccgec2Eo.s:7      *ABS*:00000001 __zero_reg__
C:\Users\ADMINI~1\AppData\Local\Temp/ccgec2Eo.s:18     .text:00000000 PortInit
C:\Users\ADMINI~1\AppData\Local\Temp/ccgec2Eo.s:53     .text:0000001e ADCInit
C:\Users\ADMINI~1\AppData\Local\Temp/ccgec2Eo.s:76     .text:00000036 AdConvert
C:\Users\ADMINI~1\AppData\Local\Temp/ccgec2Eo.s:110    .text:00000064 T1Init
C:\Users\ADMINI~1\AppData\Local\Temp/ccgec2Eo.s:131    .text:0000007a I1Init
C:\Users\ADMINI~1\AppData\Local\Temp/ccgec2Eo.s:146    .text:00000082 PCInit
C:\Users\ADMINI~1\AppData\Local\Temp/ccgec2Eo.s:170    .text:00000098 T0Init
C:\Users\ADMINI~1\AppData\Local\Temp/ccgec2Eo.s:192    .text:000000a8 T2Init
C:\Users\ADMINI~1\AppData\Local\Temp/ccgec2Eo.s:212    .text:000000ba __vector_10
C:\Users\ADMINI~1\AppData\Local\Temp/ccgec2Eo.s:1290   .data:00000001 CaptStat
C:\Users\ADMINI~1\AppData\Local\Temp/ccgec2Eo.s:1278   .bss:00000014 speed
C:\Users\ADMINI~1\AppData\Local\Temp/ccgec2Eo.s:1571   .bss:0000001a times
C:\Users\ADMINI~1\AppData\Local\Temp/ccgec2Eo.s:1265   .bss:00000012 LastValue
C:\Users\ADMINI~1\AppData\Local\Temp/ccgec2Eo.s:1259   .bss:00000010 VelInte
C:\Users\ADMINI~1\AppData\Local\Temp/ccgec2Eo.s:1271   .data:00000000 stall
C:\Users\ADMINI~1\AppData\Local\Temp/ccgec2Eo.s:1565   .bss:00000019 update
C:\Users\ADMINI~1\AppData\Local\Temp/ccgec2Eo.s:319    .text:00000192 commut
C:\Users\ADMINI~1\AppData\Local\Temp/ccgec2Eo.s:1284   .bss:00000016 dir
C:\Users\ADMINI~1\AppData\Local\Temp/ccgec2Eo.s:625    .text:0000036a StartFun
C:\Users\ADMINI~1\AppData\Local\Temp/ccgec2Eo.s:748    .text:000003fe __vector_4
C:\Users\ADMINI~1\AppData\Local\Temp/ccgec2Eo.s:803    .text:0000045a main
C:\Users\ADMINI~1\AppData\Local\Temp/ccgec2Eo.s:1297   .bss:00000017 value
C:\Users\ADMINI~1\AppData\Local\Temp/ccgec2Eo.s:1303   .data:00000002 porp
C:\Users\ADMINI~1\AppData\Local\Temp/ccgec2Eo.s:1253   .bss:00000000 StateLoTable

UNDEFINED SYMBOLS
__do_copy_data
__do_clear_bss
