   1               		.file	"main.c"
   2               	__SREG__ = 0x3f
   3               	__SP_H__ = 0x3e
   4               	__SP_L__ = 0x3d
   5               	__CCP__  = 0x34
   6               	__tmp_reg__ = 0
   7               	__zero_reg__ = 1
  15               	.Ltext0:
  16               	.global	PortInit
  18               	PortInit:
  19               	.LFB8:
  20               	.LM1:
  21               	/* prologue: function */
  22               	/* frame size = 0 */
  23               	.LM2:
  24 0000 8EE0      		ldi r24,lo8(14)
  25 0002 84B9      		out 36-32,r24
  26               	.LM3:
  27 0004 88E0      		ldi r24,lo8(8)
  28 0006 85B9      		out 37-32,r24
  29               	.LM4:
  30 0008 13B8      		out 35-32,__zero_reg__
  31               	.LM5:
  32 000a 85EE      		ldi r24,lo8(-27)
  33 000c 8AB9      		out 42-32,r24
  34               	.LM6:
  35 000e 81E6      		ldi r24,lo8(97)
  36 0010 8BB9      		out 43-32,r24
  37               	.LM7:
  38 0012 19B8      		out 41-32,__zero_reg__
  39               	.LM8:
  40 0014 80E3      		ldi r24,lo8(48)
  41 0016 87B9      		out 39-32,r24
  42               	.LM9:
  43 0018 88B9      		out 40-32,r24
  44               	.LM10:
  45 001a 16B8      		out 38-32,__zero_reg__
  46               	/* epilogue start */
  47               	.LM11:
  48 001c 0895      		ret
  49               	.LFE8:
  51               	.global	IncPIDInit
  53               	IncPIDInit:
  54               	.LFB9:
  55               	.LM12:
  56               	.LVL0:
  57               	/* prologue: function */
  58               	/* frame size = 0 */
  59 001e FC01      		movw r30,r24
  60               	.LM13:
  61 0020 1686      		std Z+14,__zero_reg__
  62 0022 1586      		std Z+13,__zero_reg__
  63               	.LM14:
  64 0024 108A      		std Z+16,__zero_reg__
  65 0026 1786      		std Z+15,__zero_reg__
  66               	.LM15:
  67 0028 8DEC      		ldi r24,lo8(0x3dcccccd)
  68 002a 9CEC      		ldi r25,hi8(0x3dcccccd)
  69 002c ACEC      		ldi r26,hlo8(0x3dcccccd)
  70 002e BDE3      		ldi r27,hhi8(0x3dcccccd)
  71               	.LVL1:
  72 0030 8183      		std Z+1,r24
  73 0032 9283      		std Z+2,r25
  74 0034 A383      		std Z+3,r26
  75 0036 B483      		std Z+4,r27
  76               	.LM16:
  77 0038 8AE0      		ldi r24,lo8(0x3c23d70a)
  78 003a 97ED      		ldi r25,hi8(0x3c23d70a)
  79 003c A3E2      		ldi r26,hlo8(0x3c23d70a)
  80 003e BCE3      		ldi r27,hhi8(0x3c23d70a)
  81 0040 8583      		std Z+5,r24
  82 0042 9683      		std Z+6,r25
  83 0044 A783      		std Z+7,r26
  84 0046 B087      		std Z+8,r27
  85               	.LM17:
  86 0048 8187      		std Z+9,r24
  87 004a 9287      		std Z+10,r25
  88 004c A387      		std Z+11,r26
  89 004e B487      		std Z+12,r27
  90               	.LM18:
  91 0050 80E5      		ldi r24,lo8(80)
  92 0052 8083      		st Z,r24
  93               	/* epilogue start */
  94               	.LM19:
  95 0054 0895      		ret
  96               	.LFE9:
  98               	.global	IncPIDCalc
 100               	IncPIDCalc:
 101               	.LFB10:
 102               	.LM20:
 103               	.LVL2:
 104 0056 8F92      		push r8
 105 0058 9F92      		push r9
 106 005a AF92      		push r10
 107 005c BF92      		push r11
 108 005e CF92      		push r12
 109 0060 DF92      		push r13
 110 0062 EF92      		push r14
 111 0064 FF92      		push r15
 112 0066 0F93      		push r16
 113 0068 1F93      		push r17
 114               	/* prologue: function */
 115               	/* frame size = 0 */
 116 006a 5B01      		movw r10,r22
 117               	.LM21:
 118 006c FB01      		movw r30,r22
 119 006e C080      		ld r12,Z
 120 0070 DD24      		clr r13
 121               	.LVL3:
 122 0072 C81A      		sub r12,r24
 123 0074 D90A      		sbc r13,r25
 124               	.LVL4:
 125               	.LM22:
 126 0076 8584      		ldd r8,Z+13
 127 0078 9684      		ldd r9,Z+14
 128 007a B601      		movw r22,r12
 129 007c 8827      		clr r24
 130 007e 77FD      		sbrc r23,7
 131 0080 8095      		com r24
 132 0082 982F      		mov r25,r24
 133               	.LVL5:
 134 0084 00D0      		rcall __floatsisf
 135               	.LVL6:
 136 0086 2091 0000 		lds r18,Kp
 137 008a 3091 0000 		lds r19,(Kp)+1
 138 008e 4091 0000 		lds r20,(Kp)+2
 139 0092 5091 0000 		lds r21,(Kp)+3
 140 0096 00D0      		rcall __mulsf3
 141 0098 7B01      		movw r14,r22
 142 009a 8C01      		movw r16,r24
 143 009c B401      		movw r22,r8
 144 009e 8827      		clr r24
 145 00a0 77FD      		sbrc r23,7
 146 00a2 8095      		com r24
 147 00a4 982F      		mov r25,r24
 148 00a6 00D0      		rcall __floatsisf
 149 00a8 2091 0000 		lds r18,Ki
 150 00ac 3091 0000 		lds r19,(Ki)+1
 151 00b0 4091 0000 		lds r20,(Ki)+2
 152 00b4 5091 0000 		lds r21,(Ki)+3
 153 00b8 00D0      		rcall __mulsf3
 154 00ba 9B01      		movw r18,r22
 155 00bc AC01      		movw r20,r24
 156 00be C801      		movw r24,r16
 157 00c0 B701      		movw r22,r14
 158 00c2 00D0      		rcall __subsf3
 159 00c4 7B01      		movw r14,r22
 160 00c6 8C01      		movw r16,r24
 161 00c8 F501      		movw r30,r10
 162 00ca 6785      		ldd r22,Z+15
 163 00cc 7089      		ldd r23,Z+16
 164 00ce 8827      		clr r24
 165 00d0 77FD      		sbrc r23,7
 166 00d2 8095      		com r24
 167 00d4 982F      		mov r25,r24
 168 00d6 00D0      		rcall __floatsisf
 169 00d8 2091 0000 		lds r18,Kd
 170 00dc 3091 0000 		lds r19,(Kd)+1
 171 00e0 4091 0000 		lds r20,(Kd)+2
 172 00e4 5091 0000 		lds r21,(Kd)+3
 173 00e8 00D0      		rcall __mulsf3
 174 00ea 9B01      		movw r18,r22
 175 00ec AC01      		movw r20,r24
 176 00ee C801      		movw r24,r16
 177 00f0 B701      		movw r22,r14
 178 00f2 00D0      		rcall __addsf3
 179 00f4 00D0      		rcall __fixsfsi
 180               	.LM23:
 181 00f6 F501      		movw r30,r10
 182 00f8 908A      		std Z+16,r9
 183 00fa 8786      		std Z+15,r8
 184               	.LM24:
 185 00fc D686      		std Z+14,r13
 186 00fe C586      		std Z+13,r12
 187               	.LVL7:
 188               	.LM25:
 189 0100 CB01      		movw r24,r22
 190               	/* epilogue start */
 191 0102 1F91      		pop r17
 192 0104 0F91      		pop r16
 193 0106 FF90      		pop r15
 194 0108 EF90      		pop r14
 195 010a DF90      		pop r13
 196               	.LVL8:
 197 010c CF90      		pop r12
 198               	.LVL9:
 199 010e BF90      		pop r11
 200 0110 AF90      		pop r10
 201               	.LVL10:
 202 0112 9F90      		pop r9
 203 0114 8F90      		pop r8
 204 0116 0895      		ret
 205               	.LFE10:
 207               	.global	I1Init
 209               	I1Init:
 210               	.LFB11:
 211               	.LM26:
 212               	/* prologue: function */
 213               	/* frame size = 0 */
 214               	.LM27:
 215 0118 8CE0      		ldi r24,lo8(12)
 216 011a 8093 6900 		sts 105,r24
 217               	/* epilogue start */
 218               	.LM28:
 219 011e 0895      		ret
 220               	.LFE11:
 222               	.global	PCInit
 224               	PCInit:
 225               	.LFB12:
 226               	.LM29:
 227               	/* prologue: function */
 228               	/* frame size = 0 */
 229               	.LM30:
 230 0120 E8E6      		ldi r30,lo8(104)
 231 0122 F0E0      		ldi r31,hi8(104)
 232 0124 8081      		ld r24,Z
 233 0126 8260      		ori r24,lo8(2)
 234 0128 8083      		st Z,r24
 235               	.LM31:
 236 012a ECE6      		ldi r30,lo8(108)
 237 012c F0E0      		ldi r31,hi8(108)
 238 012e 8081      		ld r24,Z
 239 0130 8760      		ori r24,lo8(7)
 240 0132 8083      		st Z,r24
 241               	/* epilogue start */
 242               	.LM32:
 243 0134 0895      		ret
 244               	.LFE12:
 246               	.global	T0Init
 248               	T0Init:
 249               	.LFB13:
 250               	.LM33:
 251               	/* prologue: function */
 252               	/* frame size = 0 */
 253               	.LM34:
 254 0136 81EA      		ldi r24,lo8(-95)
 255 0138 84BD      		out 68-32,r24
 256               	.LM35:
 257 013a 81E0      		ldi r24,lo8(1)
 258 013c 85BD      		out 69-32,r24
 259               	.LM36:
 260 013e 80E4      		ldi r24,lo8(64)
 261 0140 88BD      		out 72-32,r24
 262 0142 88B5      		in r24,72-32
 263 0144 87BD      		out 71-32,r24
 264               	/* epilogue start */
 265               	.LM37:
 266 0146 0895      		ret
 267               	.LFE13:
 269               	.global	T2Init
 271               	T2Init:
 272               	.LFB14:
 273               	.LM38:
 274               	/* prologue: function */
 275               	/* frame size = 0 */
 276               	.LM39:
 277 0148 81E8      		ldi r24,lo8(-127)
 278 014a 8093 B000 		sts 176,r24
 279               	.LM40:
 280 014e 81E0      		ldi r24,lo8(1)
 281 0150 8093 B100 		sts 177,r24
 282               	.LM41:
 283 0154 80E4      		ldi r24,lo8(64)
 284 0156 8093 B300 		sts 179,r24
 285               	/* epilogue start */
 286               	.LM42:
 287 015a 0895      		ret
 288               	.LFE14:
 290               	.global	__vector_13
 292               	__vector_13:
 293               	.LFB15:
 294               	.LM43:
 295 015c 1F92      		push __zero_reg__
 296 015e 0F92      		push r0
 297 0160 0FB6      		in r0,__SREG__
 298 0162 0F92      		push r0
 299 0164 1124      		clr __zero_reg__
 300 0166 0F93      		push r16
 301 0168 1F93      		push r17
 302 016a 2F93      		push r18
 303 016c 3F93      		push r19
 304 016e 4F93      		push r20
 305 0170 5F93      		push r21
 306 0172 6F93      		push r22
 307 0174 7F93      		push r23
 308 0176 8F93      		push r24
 309 0178 9F93      		push r25
 310 017a AF93      		push r26
 311 017c BF93      		push r27
 312 017e EF93      		push r30
 313 0180 FF93      		push r31
 314               	/* prologue: Signal */
 315               	/* frame size = 0 */
 316               	.LM44:
 317 0182 85B1      		in r24,37-32
 318 0184 92E0      		ldi r25,lo8(2)
 319 0186 8927      		eor r24,r25
 320 0188 85B9      		out 37-32,r24
 321               	.LM45:
 322 018a 0091 0000 		lds r16,sp
 323 018e 1091 0000 		lds r17,(sp)+1
 324 0192 8091 0000 		lds r24,speed
 325 0196 9091 0000 		lds r25,(speed)+1
 326 019a 6091 0000 		lds r22,sptr
 327 019e 7091 0000 		lds r23,(sptr)+1
 328 01a2 00D0      		rcall IncPIDCalc
 329 01a4 080F      		add r16,r24
 330 01a6 191F      		adc r17,r25
 331 01a8 1093 0000 		sts (sp)+1,r17
 332 01ac 0093 0000 		sts sp,r16
 333               	.LM46:
 334 01b0 8091 0000 		lds r24,sp
 335 01b4 9091 0000 		lds r25,(sp)+1
 336 01b8 8F3F      		cpi r24,255
 337 01ba 9105      		cpc r25,__zero_reg__
 338 01bc 01F0      		breq .L16
 339 01be 04F0      		brlt .L16
 340               	.LM47:
 341 01c0 8FEF      		ldi r24,lo8(255)
 342 01c2 90E0      		ldi r25,hi8(255)
 343 01c4 9093 0000 		sts (sp)+1,r25
 344 01c8 8093 0000 		sts sp,r24
 345               	.L16:
 346               	.LM48:
 347 01cc 8091 0000 		lds r24,sp
 348 01d0 9091 0000 		lds r25,(sp)+1
 349 01d4 97FF      		sbrs r25,7
 350 01d6 00C0      		rjmp .L17
 351               	.LM49:
 352 01d8 1092 0000 		sts (sp)+1,__zero_reg__
 353 01dc 1092 0000 		sts sp,__zero_reg__
 354               	.L17:
 355               	.LM50:
 356 01e0 8091 0000 		lds r24,sp
 357 01e4 9091 0000 		lds r25,(sp)+1
 358 01e8 8095      		com r24
 359 01ea 8093 B300 		sts 179,r24
 360 01ee 8091 B300 		lds r24,179
 361 01f2 88BD      		out 72-32,r24
 362 01f4 88B5      		in r24,72-32
 363 01f6 87BD      		out 71-32,r24
 364               	.LM51:
 365 01f8 1092 0000 		sts (speed)+1,__zero_reg__
 366 01fc 1092 0000 		sts speed,__zero_reg__
 367               	.LM52:
 368 0200 8091 0000 		lds r24,times
 369 0204 8F5F      		subi r24,lo8(-(1))
 370 0206 8093 0000 		sts times,r24
 371 020a 8150      		subi r24,lo8(-(-1))
 372 020c 8930      		cpi r24,lo8(9)
 373 020e 00F0      		brlo .L18
 374               	.LM53:
 375 0210 2091 0000 		lds r18,LastValue
 376 0214 3091 0000 		lds r19,(LastValue)+1
 377 0218 8091 0000 		lds r24,VelInte
 378 021c 9091 0000 		lds r25,(VelInte)+1
 379 0220 2817      		cp r18,r24
 380 0222 3907      		cpc r19,r25
 381 0224 01F4      		brne .L19
 382               	.LM54:
 383 0226 81E0      		ldi r24,lo8(1)
 384 0228 8093 0000 		sts stall,r24
 385 022c 00C0      		rjmp .L20
 386               	.L19:
 387               	.LM55:
 388 022e 8091 0000 		lds r24,VelInte
 389 0232 9091 0000 		lds r25,(VelInte)+1
 390 0236 9093 0000 		sts (LastValue)+1,r25
 391 023a 8093 0000 		sts LastValue,r24
 392               	.LM56:
 393 023e 1092 0000 		sts stall,__zero_reg__
 394               	.L20:
 395               	.LM57:
 396 0242 1092 0000 		sts times,__zero_reg__
 397               	.L18:
 398               	.LM58:
 399 0246 8091 0000 		lds r24,VelInte
 400 024a 9091 0000 		lds r25,(VelInte)+1
 401 024e 8156      		subi r24,lo8(-5535)
 402 0250 9A4E      		sbci r25,hi8(-5535)
 403 0252 00F0      		brlo .L22
 404               	.LM59:
 405 0254 1092 0000 		sts (VelInte)+1,__zero_reg__
 406 0258 1092 0000 		sts VelInte,__zero_reg__
 407               	.L22:
 408               	/* epilogue start */
 409               	.LM60:
 410 025c FF91      		pop r31
 411 025e EF91      		pop r30
 412 0260 BF91      		pop r27
 413 0262 AF91      		pop r26
 414 0264 9F91      		pop r25
 415 0266 8F91      		pop r24
 416 0268 7F91      		pop r23
 417 026a 6F91      		pop r22
 418 026c 5F91      		pop r21
 419 026e 4F91      		pop r20
 420 0270 3F91      		pop r19
 421 0272 2F91      		pop r18
 422 0274 1F91      		pop r17
 423 0276 0F91      		pop r16
 424 0278 0F90      		pop r0
 425 027a 0FBE      		out __SREG__,r0
 426 027c 0F90      		pop r0
 427 027e 1F90      		pop __zero_reg__
 428 0280 1895      		reti
 429               	.LFE15:
 431               	.global	__vector_2
 433               	__vector_2:
 434               	.LFB16:
 435               	.LM61:
 436 0282 1F92      		push __zero_reg__
 437 0284 0F92      		push r0
 438 0286 0FB6      		in r0,__SREG__
 439 0288 0F92      		push r0
 440 028a 1124      		clr __zero_reg__
 441 028c 8F93      		push r24
 442 028e 9F93      		push r25
 443               	/* prologue: Signal */
 444               	/* frame size = 0 */
 445               	.LM62:
 446 0290 8091 0000 		lds r24,speed
 447 0294 9091 0000 		lds r25,(speed)+1
 448 0298 0196      		adiw r24,1
 449 029a 9093 0000 		sts (speed)+1,r25
 450 029e 8093 0000 		sts speed,r24
 451               	/* epilogue start */
 452               	.LM63:
 453 02a2 9F91      		pop r25
 454 02a4 8F91      		pop r24
 455 02a6 0F90      		pop r0
 456 02a8 0FBE      		out __SREG__,r0
 457 02aa 0F90      		pop r0
 458 02ac 1F90      		pop __zero_reg__
 459 02ae 1895      		reti
 460               	.LFE16:
 463               	commut:
 464               	.LFB19:
 465               	.LM64:
 466               	.LVL11:
 467               	/* prologue: function */
 468               	/* frame size = 0 */
 469 02b0 982F      		mov r25,r24
 470               	.LM65:
 471 02b2 8091 0000 		lds r24,dir
 472               	.LVL12:
 473 02b6 8823      		tst r24
 474 02b8 01F4      		brne .+2
 475 02ba 00C0      		rjmp .L26
 476               	.LM66:
 477 02bc 9330      		cpi r25,lo8(3)
 478 02be 01F4      		brne .+2
 479 02c0 00C0      		rjmp .L30
 480 02c2 9430      		cpi r25,lo8(4)
 481 02c4 00F4      		brsh .L34
 482 02c6 9130      		cpi r25,lo8(1)
 483 02c8 01F4      		brne .+2
 484 02ca 00C0      		rjmp .L28
 485 02cc 9230      		cpi r25,lo8(2)
 486 02ce 01F0      		breq .+2
 487 02d0 00C0      		rjmp .L42
 488 02d2 00C0      		rjmp .L52
 489               	.L34:
 490 02d4 9530      		cpi r25,lo8(5)
 491 02d6 01F0      		breq .L32
 492 02d8 9530      		cpi r25,lo8(5)
 493 02da 00F0      		brlo .L31
 494 02dc 9630      		cpi r25,lo8(6)
 495 02de 01F0      		breq .+2
 496 02e0 00C0      		rjmp .L42
 497 02e2 00C0      		rjmp .L53
 498               	.L32:
 499               	.LM67:
 500 02e4 84B5      		in r24,68-32
 501 02e6 8F70      		andi r24,lo8(15)
 502 02e8 84BD      		out 68-32,r24
 503 02ea 8091 B000 		lds r24,176
 504 02ee 8F73      		andi r24,lo8(63)
 505 02f0 8093 B000 		sts 176,r24
 506 02f4 589A      		sbi 43-32,0
 507 02f6 88B1      		in r24,40-32
 508 02f8 8063      		ori r24,lo8(48)
 509 02fa 88B9      		out 40-32,r24
 510               	/* #APP */
 511               	 ;  224 "main.c" 1
 512 02fc 0000      		nop
 513               	 ;  0 "" 2
 514               	 ;  224 "main.c" 1
 515 02fe 0000      		nop
 516               	 ;  0 "" 2
 517               	 ;  224 "main.c" 1
 518 0300 0000      		nop
 519               	 ;  0 "" 2
 520               	 ;  224 "main.c" 1
 521 0302 0000      		nop
 522               	 ;  0 "" 2
 523               	 ;  224 "main.c" 1
 524 0304 0000      		nop
 525               	 ;  0 "" 2
 526               	 ;  224 "main.c" 1
 527 0306 0000      		nop
 528               	 ;  0 "" 2
 529               	 ;  224 "main.c" 1
 530 0308 0000      		nop
 531               	 ;  0 "" 2
 532               	 ;  224 "main.c" 1
 533 030a 0000      		nop
 534               	 ;  0 "" 2
 535               	/* #NOAPP */
 536 030c 00C0      		rjmp .L51
 537               	.L31:
 538               	.LM68:
 539 030e 84B5      		in r24,68-32
 540 0310 8F70      		andi r24,lo8(15)
 541 0312 84BD      		out 68-32,r24
 542 0314 8091 B000 		lds r24,176
 543 0318 8F73      		andi r24,lo8(63)
 544 031a 8093 B000 		sts 176,r24
 545 031e 589A      		sbi 43-32,0
 546 0320 88B1      		in r24,40-32
 547 0322 8063      		ori r24,lo8(48)
 548 0324 88B9      		out 40-32,r24
 549               	/* #APP */
 550               	 ;  227 "main.c" 1
 551 0326 0000      		nop
 552               	 ;  0 "" 2
 553               	 ;  227 "main.c" 1
 554 0328 0000      		nop
 555               	 ;  0 "" 2
 556               	 ;  227 "main.c" 1
 557 032a 0000      		nop
 558               	 ;  0 "" 2
 559               	 ;  227 "main.c" 1
 560 032c 0000      		nop
 561               	 ;  0 "" 2
 562               	 ;  227 "main.c" 1
 563 032e 0000      		nop
 564               	 ;  0 "" 2
 565               	 ;  227 "main.c" 1
 566 0330 0000      		nop
 567               	 ;  0 "" 2
 568               	 ;  227 "main.c" 1
 569 0332 0000      		nop
 570               	 ;  0 "" 2
 571               	 ;  227 "main.c" 1
 572 0334 0000      		nop
 573               	 ;  0 "" 2
 574               	/* #NOAPP */
 575 0336 00C0      		rjmp .L50
 576               	.L53:
 577               	.LM69:
 578 0338 84B5      		in r24,68-32
 579 033a 8F70      		andi r24,lo8(15)
 580 033c 84BD      		out 68-32,r24
 581 033e 8091 B000 		lds r24,176
 582 0342 8F73      		andi r24,lo8(63)
 583 0344 8093 B000 		sts 176,r24
 584 0348 589A      		sbi 43-32,0
 585 034a 88B1      		in r24,40-32
 586 034c 8063      		ori r24,lo8(48)
 587 034e 88B9      		out 40-32,r24
 588               	/* #APP */
 589               	 ;  230 "main.c" 1
 590 0350 0000      		nop
 591               	 ;  0 "" 2
 592               	 ;  230 "main.c" 1
 593 0352 0000      		nop
 594               	 ;  0 "" 2
 595               	 ;  230 "main.c" 1
 596 0354 0000      		nop
 597               	 ;  0 "" 2
 598               	 ;  230 "main.c" 1
 599 0356 0000      		nop
 600               	 ;  0 "" 2
 601               	 ;  230 "main.c" 1
 602 0358 0000      		nop
 603               	 ;  0 "" 2
 604               	 ;  230 "main.c" 1
 605 035a 0000      		nop
 606               	 ;  0 "" 2
 607               	 ;  230 "main.c" 1
 608 035c 0000      		nop
 609               	 ;  0 "" 2
 610               	 ;  230 "main.c" 1
 611 035e 0000      		nop
 612               	 ;  0 "" 2
 613               	/* #NOAPP */
 614 0360 5898      		cbi 43-32,0
 615 0362 00C0      		rjmp .L44
 616               	.L52:
 617               	.LM70:
 618 0364 84B5      		in r24,68-32
 619 0366 8F70      		andi r24,lo8(15)
 620 0368 84BD      		out 68-32,r24
 621 036a 8091 B000 		lds r24,176
 622 036e 8F73      		andi r24,lo8(63)
 623 0370 8093 B000 		sts 176,r24
 624 0374 589A      		sbi 43-32,0
 625 0376 88B1      		in r24,40-32
 626 0378 8063      		ori r24,lo8(48)
 627 037a 88B9      		out 40-32,r24
 628               	/* #APP */
 629               	 ;  233 "main.c" 1
 630 037c 0000      		nop
 631               	 ;  0 "" 2
 632               	 ;  233 "main.c" 1
 633 037e 0000      		nop
 634               	 ;  0 "" 2
 635               	 ;  233 "main.c" 1
 636 0380 0000      		nop
 637               	 ;  0 "" 2
 638               	 ;  233 "main.c" 1
 639 0382 0000      		nop
 640               	 ;  0 "" 2
 641               	 ;  233 "main.c" 1
 642 0384 0000      		nop
 643               	 ;  0 "" 2
 644               	 ;  233 "main.c" 1
 645 0386 0000      		nop
 646               	 ;  0 "" 2
 647               	 ;  233 "main.c" 1
 648 0388 0000      		nop
 649               	 ;  0 "" 2
 650               	 ;  233 "main.c" 1
 651 038a 0000      		nop
 652               	 ;  0 "" 2
 653               	/* #NOAPP */
 654 038c 00C0      		rjmp .L46
 655               	.L30:
 656               	.LM71:
 657 038e 84B5      		in r24,68-32
 658 0390 8F70      		andi r24,lo8(15)
 659 0392 84BD      		out 68-32,r24
 660 0394 8091 B000 		lds r24,176
 661 0398 8F73      		andi r24,lo8(63)
 662 039a 8093 B000 		sts 176,r24
 663 039e 589A      		sbi 43-32,0
 664 03a0 88B1      		in r24,40-32
 665 03a2 8063      		ori r24,lo8(48)
 666 03a4 88B9      		out 40-32,r24
 667               	/* #APP */
 668               	 ;  236 "main.c" 1
 669 03a6 0000      		nop
 670               	 ;  0 "" 2
 671               	 ;  236 "main.c" 1
 672 03a8 0000      		nop
 673               	 ;  0 "" 2
 674               	 ;  236 "main.c" 1
 675 03aa 0000      		nop
 676               	 ;  0 "" 2
 677               	 ;  236 "main.c" 1
 678 03ac 0000      		nop
 679               	 ;  0 "" 2
 680               	 ;  236 "main.c" 1
 681 03ae 0000      		nop
 682               	 ;  0 "" 2
 683               	 ;  236 "main.c" 1
 684 03b0 0000      		nop
 685               	 ;  0 "" 2
 686               	 ;  236 "main.c" 1
 687 03b2 0000      		nop
 688               	 ;  0 "" 2
 689               	 ;  236 "main.c" 1
 690 03b4 0000      		nop
 691               	 ;  0 "" 2
 692               	/* #NOAPP */
 693 03b6 00C0      		rjmp .L48
 694               	.L28:
 695               	.LM72:
 696 03b8 84B5      		in r24,68-32
 697 03ba 8F70      		andi r24,lo8(15)
 698 03bc 84BD      		out 68-32,r24
 699 03be 8091 B000 		lds r24,176
 700 03c2 8F73      		andi r24,lo8(63)
 701 03c4 8093 B000 		sts 176,r24
 702 03c8 589A      		sbi 43-32,0
 703 03ca 88B1      		in r24,40-32
 704 03cc 8063      		ori r24,lo8(48)
 705 03ce 88B9      		out 40-32,r24
 706               	/* #APP */
 707               	 ;  239 "main.c" 1
 708 03d0 0000      		nop
 709               	 ;  0 "" 2
 710               	 ;  239 "main.c" 1
 711 03d2 0000      		nop
 712               	 ;  0 "" 2
 713               	 ;  239 "main.c" 1
 714 03d4 0000      		nop
 715               	 ;  0 "" 2
 716               	 ;  239 "main.c" 1
 717 03d6 0000      		nop
 718               	 ;  0 "" 2
 719               	 ;  239 "main.c" 1
 720 03d8 0000      		nop
 721               	 ;  0 "" 2
 722               	 ;  239 "main.c" 1
 723 03da 0000      		nop
 724               	 ;  0 "" 2
 725               	 ;  239 "main.c" 1
 726 03dc 0000      		nop
 727               	 ;  0 "" 2
 728               	 ;  239 "main.c" 1
 729 03de 0000      		nop
 730               	 ;  0 "" 2
 731               	/* #NOAPP */
 732               	.L49:
 733 03e0 4498      		cbi 40-32,4
 734               	.L47:
 735 03e2 84B5      		in r24,68-32
 736 03e4 8068      		ori r24,lo8(-128)
 737 03e6 00C0      		rjmp .L45
 738               	.L26:
 739               	.LM73:
 740 03e8 9330      		cpi r25,lo8(3)
 741 03ea 01F4      		brne .+2
 742 03ec 00C0      		rjmp .L37
 743 03ee 9430      		cpi r25,lo8(4)
 744 03f0 00F4      		brsh .L41
 745 03f2 9130      		cpi r25,lo8(1)
 746 03f4 01F4      		brne .+2
 747 03f6 00C0      		rjmp .L35
 748 03f8 9230      		cpi r25,lo8(2)
 749 03fa 01F0      		breq .+2
 750 03fc 00C0      		rjmp .L42
 751 03fe 00C0      		rjmp .L54
 752               	.L41:
 753 0400 9530      		cpi r25,lo8(5)
 754 0402 01F0      		breq .L39
 755 0404 9530      		cpi r25,lo8(5)
 756 0406 00F0      		brlo .L38
 757 0408 9630      		cpi r25,lo8(6)
 758 040a 01F0      		breq .+2
 759 040c 00C0      		rjmp .L42
 760 040e 00C0      		rjmp .L55
 761               	.L39:
 762               	.LM74:
 763 0410 84B5      		in r24,68-32
 764 0412 8F70      		andi r24,lo8(15)
 765 0414 84BD      		out 68-32,r24
 766 0416 8091 B000 		lds r24,176
 767 041a 8F73      		andi r24,lo8(63)
 768 041c 8093 B000 		sts 176,r24
 769 0420 589A      		sbi 43-32,0
 770 0422 88B1      		in r24,40-32
 771 0424 8063      		ori r24,lo8(48)
 772 0426 88B9      		out 40-32,r24
 773               	/* #APP */
 774               	 ;  250 "main.c" 1
 775 0428 0000      		nop
 776               	 ;  0 "" 2
 777               	 ;  250 "main.c" 1
 778 042a 0000      		nop
 779               	 ;  0 "" 2
 780               	 ;  250 "main.c" 1
 781 042c 0000      		nop
 782               	 ;  0 "" 2
 783               	 ;  250 "main.c" 1
 784 042e 0000      		nop
 785               	 ;  0 "" 2
 786               	 ;  250 "main.c" 1
 787 0430 0000      		nop
 788               	 ;  0 "" 2
 789               	 ;  250 "main.c" 1
 790 0432 0000      		nop
 791               	 ;  0 "" 2
 792               	 ;  250 "main.c" 1
 793 0434 0000      		nop
 794               	 ;  0 "" 2
 795               	 ;  250 "main.c" 1
 796 0436 0000      		nop
 797               	 ;  0 "" 2
 798               	/* #NOAPP */
 799               	.L46:
 800 0438 4598      		cbi 40-32,5
 801               	.L44:
 802 043a 8091 B000 		lds r24,176
 803 043e 8068      		ori r24,lo8(-128)
 804 0440 8093 B000 		sts 176,r24
 805 0444 0895      		ret
 806               	.L38:
 807               	.LM75:
 808 0446 84B5      		in r24,68-32
 809 0448 8F70      		andi r24,lo8(15)
 810 044a 84BD      		out 68-32,r24
 811 044c 8091 B000 		lds r24,176
 812 0450 8F73      		andi r24,lo8(63)
 813 0452 8093 B000 		sts 176,r24
 814 0456 589A      		sbi 43-32,0
 815 0458 88B1      		in r24,40-32
 816 045a 8063      		ori r24,lo8(48)
 817 045c 88B9      		out 40-32,r24
 818               	/* #APP */
 819               	 ;  253 "main.c" 1
 820 045e 0000      		nop
 821               	 ;  0 "" 2
 822               	 ;  253 "main.c" 1
 823 0460 0000      		nop
 824               	 ;  0 "" 2
 825               	 ;  253 "main.c" 1
 826 0462 0000      		nop
 827               	 ;  0 "" 2
 828               	 ;  253 "main.c" 1
 829 0464 0000      		nop
 830               	 ;  0 "" 2
 831               	 ;  253 "main.c" 1
 832 0466 0000      		nop
 833               	 ;  0 "" 2
 834               	 ;  253 "main.c" 1
 835 0468 0000      		nop
 836               	 ;  0 "" 2
 837               	 ;  253 "main.c" 1
 838 046a 0000      		nop
 839               	 ;  0 "" 2
 840               	 ;  253 "main.c" 1
 841 046c 0000      		nop
 842               	 ;  0 "" 2
 843               	/* #NOAPP */
 844               	.L48:
 845 046e 4598      		cbi 40-32,5
 846 0470 00C0      		rjmp .L47
 847               	.L55:
 848               	.LM76:
 849 0472 84B5      		in r24,68-32
 850 0474 8F70      		andi r24,lo8(15)
 851 0476 84BD      		out 68-32,r24
 852 0478 8091 B000 		lds r24,176
 853 047c 8F73      		andi r24,lo8(63)
 854 047e 8093 B000 		sts 176,r24
 855 0482 589A      		sbi 43-32,0
 856 0484 88B1      		in r24,40-32
 857 0486 8063      		ori r24,lo8(48)
 858 0488 88B9      		out 40-32,r24
 859               	/* #APP */
 860               	 ;  256 "main.c" 1
 861 048a 0000      		nop
 862               	 ;  0 "" 2
 863               	 ;  256 "main.c" 1
 864 048c 0000      		nop
 865               	 ;  0 "" 2
 866               	 ;  256 "main.c" 1
 867 048e 0000      		nop
 868               	 ;  0 "" 2
 869               	 ;  256 "main.c" 1
 870 0490 0000      		nop
 871               	 ;  0 "" 2
 872               	 ;  256 "main.c" 1
 873 0492 0000      		nop
 874               	 ;  0 "" 2
 875               	 ;  256 "main.c" 1
 876 0494 0000      		nop
 877               	 ;  0 "" 2
 878               	 ;  256 "main.c" 1
 879 0496 0000      		nop
 880               	 ;  0 "" 2
 881               	 ;  256 "main.c" 1
 882 0498 0000      		nop
 883               	 ;  0 "" 2
 884               	/* #NOAPP */
 885 049a 00C0      		rjmp .L49
 886               	.L54:
 887               	.LM77:
 888 049c 84B5      		in r24,68-32
 889 049e 8F70      		andi r24,lo8(15)
 890 04a0 84BD      		out 68-32,r24
 891 04a2 8091 B000 		lds r24,176
 892 04a6 8F73      		andi r24,lo8(63)
 893 04a8 8093 B000 		sts 176,r24
 894 04ac 589A      		sbi 43-32,0
 895 04ae 88B1      		in r24,40-32
 896 04b0 8063      		ori r24,lo8(48)
 897 04b2 88B9      		out 40-32,r24
 898               	/* #APP */
 899               	 ;  259 "main.c" 1
 900 04b4 0000      		nop
 901               	 ;  0 "" 2
 902               	 ;  259 "main.c" 1
 903 04b6 0000      		nop
 904               	 ;  0 "" 2
 905               	 ;  259 "main.c" 1
 906 04b8 0000      		nop
 907               	 ;  0 "" 2
 908               	 ;  259 "main.c" 1
 909 04ba 0000      		nop
 910               	 ;  0 "" 2
 911               	 ;  259 "main.c" 1
 912 04bc 0000      		nop
 913               	 ;  0 "" 2
 914               	 ;  259 "main.c" 1
 915 04be 0000      		nop
 916               	 ;  0 "" 2
 917               	 ;  259 "main.c" 1
 918 04c0 0000      		nop
 919               	 ;  0 "" 2
 920               	 ;  259 "main.c" 1
 921 04c2 0000      		nop
 922               	 ;  0 "" 2
 923               	/* #NOAPP */
 924               	.L51:
 925 04c4 4498      		cbi 40-32,4
 926 04c6 00C0      		rjmp .L43
 927               	.L37:
 928               	.LM78:
 929 04c8 84B5      		in r24,68-32
 930 04ca 8F70      		andi r24,lo8(15)
 931 04cc 84BD      		out 68-32,r24
 932 04ce 8091 B000 		lds r24,176
 933 04d2 8F73      		andi r24,lo8(63)
 934 04d4 8093 B000 		sts 176,r24
 935 04d8 589A      		sbi 43-32,0
 936 04da 88B1      		in r24,40-32
 937 04dc 8063      		ori r24,lo8(48)
 938 04de 88B9      		out 40-32,r24
 939               	/* #APP */
 940               	 ;  262 "main.c" 1
 941 04e0 0000      		nop
 942               	 ;  0 "" 2
 943               	 ;  262 "main.c" 1
 944 04e2 0000      		nop
 945               	 ;  0 "" 2
 946               	 ;  262 "main.c" 1
 947 04e4 0000      		nop
 948               	 ;  0 "" 2
 949               	 ;  262 "main.c" 1
 950 04e6 0000      		nop
 951               	 ;  0 "" 2
 952               	 ;  262 "main.c" 1
 953 04e8 0000      		nop
 954               	 ;  0 "" 2
 955               	 ;  262 "main.c" 1
 956 04ea 0000      		nop
 957               	 ;  0 "" 2
 958               	 ;  262 "main.c" 1
 959 04ec 0000      		nop
 960               	 ;  0 "" 2
 961               	 ;  262 "main.c" 1
 962 04ee 0000      		nop
 963               	 ;  0 "" 2
 964               	/* #NOAPP */
 965               	.L50:
 966 04f0 5898      		cbi 43-32,0
 967               	.L43:
 968 04f2 84B5      		in r24,68-32
 969 04f4 8062      		ori r24,lo8(32)
 970               	.L45:
 971 04f6 84BD      		out 68-32,r24
 972 04f8 0895      		ret
 973               	.L35:
 974               	.LM79:
 975 04fa 84B5      		in r24,68-32
 976 04fc 8F70      		andi r24,lo8(15)
 977 04fe 84BD      		out 68-32,r24
 978 0500 8091 B000 		lds r24,176
 979 0504 8F73      		andi r24,lo8(63)
 980 0506 8093 B000 		sts 176,r24
 981 050a 589A      		sbi 43-32,0
 982 050c 88B1      		in r24,40-32
 983 050e 8063      		ori r24,lo8(48)
 984 0510 88B9      		out 40-32,r24
 985               	/* #APP */
 986               	 ;  265 "main.c" 1
 987 0512 0000      		nop
 988               	 ;  0 "" 2
 989               	 ;  265 "main.c" 1
 990 0514 0000      		nop
 991               	 ;  0 "" 2
 992               	 ;  265 "main.c" 1
 993 0516 0000      		nop
 994               	 ;  0 "" 2
 995               	 ;  265 "main.c" 1
 996 0518 0000      		nop
 997               	 ;  0 "" 2
 998               	 ;  265 "main.c" 1
 999 051a 0000      		nop
 1000               	 ;  0 "" 2
 1001               	 ;  265 "main.c" 1
 1002 051c 0000      		nop
 1003               	 ;  0 "" 2
 1004               	 ;  265 "main.c" 1
 1005 051e 0000      		nop
 1006               	 ;  0 "" 2
 1007               	 ;  265 "main.c" 1
 1008 0520 0000      		nop
 1009               	 ;  0 "" 2
 1010               	/* #NOAPP */
 1011 0522 5898      		cbi 43-32,0
 1012 0524 8091 B000 		lds r24,176
 1013 0528 8068      		ori r24,lo8(-128)
 1014 052a 8093 B000 		sts 176,r24
 1015               	.L42:
 1016 052e 0895      		ret
 1017               	.LFE19:
 1019               	.global	StartFun
 1021               	StartFun:
 1022               	.LFB18:
 1023               	.LM80:
 1024               	.LVL13:
 1025 0530 0F93      		push r16
 1026 0532 1F93      		push r17
 1027 0534 CF93      		push r28
 1028 0536 DF93      		push r29
 1029               	/* prologue: function */
 1030               	/* frame size = 0 */
 1031               	.LM81:
 1032 0538 1092 0000 		sts times,__zero_reg__
 1033 053c 1092 0000 		sts stall,__zero_reg__
 1034               	.LM82:
 1035 0540 8091 6800 		lds r24,104
 1036               	.LVL14:
 1037 0544 8C7F      		andi r24,lo8(-4)
 1038 0546 8093 6800 		sts 104,r24
 1039               	.LM83:
 1040 054a 1092 8100 		sts 129,__zero_reg__
 1041 054e 8091 6F00 		lds r24,111
 1042 0552 8E7F      		andi r24,lo8(-2)
 1043 0554 8093 6F00 		sts 111,r24
 1044               	.LM84:
 1045 0558 E998      		cbi 61-32,1
 1046               	.LM85:
 1047 055a 80EE      		ldi r24,lo8(-32)
 1048 055c 8093 B300 		sts 179,r24
 1049 0560 8091 B300 		lds r24,179
 1050 0564 88BD      		out 72-32,r24
 1051 0566 88B5      		in r24,72-32
 1052 0568 87BD      		out 71-32,r24
 1053               	.LM86:
 1054 056a 8091 6800 		lds r24,104
 1055 056e 8260      		ori r24,lo8(2)
 1056 0570 8093 6800 		sts 104,r24
 1057 0574 00EE      		ldi r16,lo8(-32)
 1058               	.LVL15:
 1059               	.LBB40:
 1060               	.LBB41:
 1061               	.LBB42:
 1062               	.LBB43:
 1063               	.LM87:
 1064 0576 C0E2      		ldi r28,lo8(20000)
 1065 0578 DEE4      		ldi r29,hi8(20000)
 1066               	.LVL16:
 1067               	.L61:
 1068               	.LBE43:
 1069               	.LBE42:
 1070               	.LBE41:
 1071               	.LBE40:
 1072               	.LM88:
 1073 057a 10E0      		ldi r17,lo8(0)
 1074               	.LVL17:
 1075               	.L58:
 1076               	.LM89:
 1077 057c 8091 0000 		lds r24,VelInte
 1078 0580 9091 0000 		lds r25,(VelInte)+1
 1079               	.LVL18:
 1080 0584 0597      		sbiw r24,5
 1081 0586 00F4      		brsh .L57
 1082               	.LM90:
 1083 0588 812F      		mov r24,r17
 1084 058a 00D0      		rcall commut
 1085               	.LBB47:
 1086               	.LBB46:
 1087               	.LBB45:
 1088               	.LBB44:
 1089               	.LM91:
 1090 058c CE01      		movw r24,r28
 1091               	.LVL19:
 1092               	/* #APP */
 1093               	 ;  105 "c:/winavr-20100110/lib/gcc/../../avr/include/util/delay_basic.h" 1
 1094 058e 0197      		1: sbiw r24,1
 1095 0590 01F4      		brne 1b
 1096               	 ;  0 "" 2
 1097               	/* #NOAPP */
 1098               	.LBE44:
 1099               	.LBE45:
 1100               	.LBE46:
 1101               	.LBE47:
 1102               	.LM92:
 1103 0592 1F5F      		subi r17,lo8(-(1))
 1104 0594 1830      		cpi r17,lo8(8)
 1105 0596 01F4      		brne .L58
 1106               	.LM93:
 1107 0598 0850      		subi r16,lo8(-(-8))
 1108               	.LM94:
 1109 059a 0031      		cpi r16,lo8(16)
 1110 059c 01F4      		brne .L59
 1111               	.LM95:
 1112 059e 8FEF      		ldi r24,lo8(-1)
 1113               	.LVL20:
 1114 05a0 8093 B300 		sts 179,r24
 1115 05a4 8091 B300 		lds r24,179
 1116 05a8 88BD      		out 72-32,r24
 1117 05aa 88B5      		in r24,72-32
 1118 05ac 87BD      		out 71-32,r24
 1119 05ae 20E0      		ldi r18,lo8(0)
 1120 05b0 30E0      		ldi r19,hi8(0)
 1121 05b2 00C0      		rjmp .L60
 1122               	.LVL21:
 1123               	.L59:
 1124               	.LM96:
 1125 05b4 0093 B300 		sts 179,r16
 1126 05b8 8091 B300 		lds r24,179
 1127               	.LVL22:
 1128 05bc 88BD      		out 72-32,r24
 1129 05be 88B5      		in r24,72-32
 1130 05c0 87BD      		out 71-32,r24
 1131 05c2 00C0      		rjmp .L61
 1132               	.L57:
 1133               	.LM97:
 1134 05c4 1092 0000 		sts (speed)+1,__zero_reg__
 1135 05c8 1092 0000 		sts speed,__zero_reg__
 1136               	.LM98:
 1137 05cc 81E0      		ldi r24,lo8(1)
 1138 05ce 8093 8100 		sts 129,r24
 1139 05d2 8091 6F00 		lds r24,111
 1140 05d6 8160      		ori r24,lo8(1)
 1141 05d8 8093 6F00 		sts 111,r24
 1142 05dc 1092 8500 		sts (132)+1,__zero_reg__
 1143 05e0 1092 8400 		sts 132,__zero_reg__
 1144               	.LM99:
 1145 05e4 82E0      		ldi r24,lo8(2)
 1146 05e6 8DBB      		out 61-32,r24
 1147 05e8 21E0      		ldi r18,lo8(1)
 1148 05ea 30E0      		ldi r19,hi8(1)
 1149               	.L60:
 1150               	.LM100:
 1151 05ec C901      		movw r24,r18
 1152               	/* epilogue start */
 1153 05ee DF91      		pop r29
 1154 05f0 CF91      		pop r28
 1155 05f2 1F91      		pop r17
 1156               	.LVL23:
 1157 05f4 0F91      		pop r16
 1158               	.LVL24:
 1159 05f6 0895      		ret
 1160               	.LFE18:
 1162               	.global	__vector_4
 1164               	__vector_4:
 1165               	.LFB17:
 1166               	.LM101:
 1167 05f8 1F92      		push __zero_reg__
 1168 05fa 0F92      		push r0
 1169 05fc 0FB6      		in r0,__SREG__
 1170 05fe 0F92      		push r0
 1171 0600 1124      		clr __zero_reg__
 1172 0602 2F93      		push r18
 1173 0604 3F93      		push r19
 1174 0606 4F93      		push r20
 1175 0608 5F93      		push r21
 1176 060a 6F93      		push r22
 1177 060c 7F93      		push r23
 1178 060e 8F93      		push r24
 1179 0610 9F93      		push r25
 1180 0612 AF93      		push r26
 1181 0614 BF93      		push r27
 1182 0616 EF93      		push r30
 1183 0618 FF93      		push r31
 1184               	/* prologue: Signal */
 1185               	/* frame size = 0 */
 1186               	.LM102:
 1187 061a 8091 0000 		lds r24,VelInte
 1188 061e 9091 0000 		lds r25,(VelInte)+1
 1189 0622 0196      		adiw r24,1
 1190 0624 9093 0000 		sts (VelInte)+1,r25
 1191 0628 8093 0000 		sts VelInte,r24
 1192               	.LM103:
 1193 062c 86B1      		in r24,38-32
 1194 062e 8770      		andi r24,lo8(7)
 1195 0630 00D0      		rcall commut
 1196               	/* epilogue start */
 1197               	.LM104:
 1198 0632 FF91      		pop r31
 1199 0634 EF91      		pop r30
 1200 0636 BF91      		pop r27
 1201 0638 AF91      		pop r26
 1202 063a 9F91      		pop r25
 1203 063c 8F91      		pop r24
 1204 063e 7F91      		pop r23
 1205 0640 6F91      		pop r22
 1206 0642 5F91      		pop r21
 1207 0644 4F91      		pop r20
 1208 0646 3F91      		pop r19
 1209 0648 2F91      		pop r18
 1210 064a 0F90      		pop r0
 1211 064c 0FBE      		out __SREG__,r0
 1212 064e 0F90      		pop r0
 1213 0650 1F90      		pop __zero_reg__
 1214 0652 1895      		reti
 1215               	.LFE17:
 1217               	.global	main
 1219               	main:
 1220               	.LFB20:
 1221               	.LM105:
 1222 0654 CF93      		push r28
 1223 0656 DF93      		push r29
 1224               	/* prologue: function */
 1225               	/* frame size = 0 */
 1226               	.LM106:
 1227 0658 81E1      		ldi r24,lo8(17)
 1228 065a 90E0      		ldi r25,hi8(17)
 1229 065c 00D0      		rcall malloc
 1230 065e FC01      		movw r30,r24
 1231 0660 9093 0000 		sts (sptr)+1,r25
 1232 0664 8093 0000 		sts sptr,r24
 1233               	.LBB48:
 1234               	.LBB49:
 1235               	.LM107:
 1236 0668 1686      		std Z+14,__zero_reg__
 1237 066a 1586      		std Z+13,__zero_reg__
 1238               	.LM108:
 1239 066c 108A      		std Z+16,__zero_reg__
 1240 066e 1786      		std Z+15,__zero_reg__
 1241               	.LM109:
 1242 0670 8DEC      		ldi r24,lo8(0x3dcccccd)
 1243 0672 9CEC      		ldi r25,hi8(0x3dcccccd)
 1244 0674 ACEC      		ldi r26,hlo8(0x3dcccccd)
 1245 0676 BDE3      		ldi r27,hhi8(0x3dcccccd)
 1246 0678 8183      		std Z+1,r24
 1247 067a 9283      		std Z+2,r25
 1248 067c A383      		std Z+3,r26
 1249 067e B483      		std Z+4,r27
 1250               	.LM110:
 1251 0680 8AE0      		ldi r24,lo8(0x3c23d70a)
 1252 0682 97ED      		ldi r25,hi8(0x3c23d70a)
 1253 0684 A3E2      		ldi r26,hlo8(0x3c23d70a)
 1254 0686 BCE3      		ldi r27,hhi8(0x3c23d70a)
 1255 0688 8583      		std Z+5,r24
 1256 068a 9683      		std Z+6,r25
 1257 068c A783      		std Z+7,r26
 1258 068e B087      		std Z+8,r27
 1259               	.LM111:
 1260 0690 8187      		std Z+9,r24
 1261 0692 9287      		std Z+10,r25
 1262 0694 A387      		std Z+11,r26
 1263 0696 B487      		std Z+12,r27
 1264               	.LM112:
 1265 0698 80E5      		ldi r24,lo8(80)
 1266 069a 8083      		st Z,r24
 1267               	.LBE49:
 1268               	.LBE48:
 1269               	.LM113:
 1270 069c 00D0      		rcall PortInit
 1271               	.LBB50:
 1272               	.LBB51:
 1273               	.LM114:
 1274 069e 8091 6800 		lds r24,104
 1275 06a2 8260      		ori r24,lo8(2)
 1276 06a4 8093 6800 		sts 104,r24
 1277               	.LM115:
 1278 06a8 8091 6C00 		lds r24,108
 1279 06ac 8760      		ori r24,lo8(7)
 1280 06ae 8093 6C00 		sts 108,r24
 1281               	.LBE51:
 1282               	.LBE50:
 1283               	.LM116:
 1284 06b2 85B1      		in r24,37-32
 1285 06b4 94E0      		ldi r25,lo8(4)
 1286 06b6 8927      		eor r24,r25
 1287 06b8 85B9      		out 37-32,r24
 1288 06ba 88E8      		ldi r24,lo8(5000)
 1289 06bc 93E1      		ldi r25,hi8(5000)
 1290               	.LVL25:
 1291               	.LBB52:
 1292               	.LBB53:
 1293               	.LBB54:
 1294               	.LBB55:
 1295               	.LM117:
 1296 06be 28EC      		ldi r18,lo8(200)
 1297 06c0 30E0      		ldi r19,hi8(200)
 1298               	.L67:
 1299 06c2 F901      		movw r30,r18
 1300               	.LVL26:
 1301               	/* #APP */
 1302               	 ;  105 "c:/winavr-20100110/lib/gcc/../../avr/include/util/delay_basic.h" 1
 1303 06c4 3197      		1: sbiw r30,1
 1304 06c6 01F4      		brne 1b
 1305               	 ;  0 "" 2
 1306               	/* #NOAPP */
 1307               	.LBE55:
 1308               	.LBE54:
 1309               	.LM118:
 1310 06c8 0197      		sbiw r24,1
 1311               	.LM119:
 1312 06ca 01F4      		brne .L67
 1313               	.LBE53:
 1314               	.LBE52:
 1315               	.LM120:
 1316 06cc 85B1      		in r24,37-32
 1317               	.LVL27:
 1318 06ce 94E0      		ldi r25,lo8(4)
 1319 06d0 8927      		eor r24,r25
 1320 06d2 85B9      		out 37-32,r24
 1321               	.LM121:
 1322               	/* #APP */
 1323               	 ;  282 "main.c" 1
 1324 06d4 7894      		sei
 1325               	 ;  0 "" 2
 1326               	/* #NOAPP */
 1327               	.LBB56:
 1328               	.LBB57:
 1329               	.LM122:
 1330 06d6 81EA      		ldi r24,lo8(-95)
 1331 06d8 84BD      		out 68-32,r24
 1332               	.LM123:
 1333 06da 21E0      		ldi r18,lo8(1)
 1334 06dc 25BD      		out 69-32,r18
 1335               	.LM124:
 1336 06de 90E4      		ldi r25,lo8(64)
 1337 06e0 98BD      		out 72-32,r25
 1338 06e2 88B5      		in r24,72-32
 1339 06e4 87BD      		out 71-32,r24
 1340               	.LBE57:
 1341               	.LBE56:
 1342               	.LBB58:
 1343               	.LBB59:
 1344               	.LM125:
 1345 06e6 81E8      		ldi r24,lo8(-127)
 1346 06e8 8093 B000 		sts 176,r24
 1347               	.LM126:
 1348 06ec 2093 B100 		sts 177,r18
 1349               	.LM127:
 1350 06f0 9093 B300 		sts 179,r25
 1351               	.LBE59:
 1352               	.LBE58:
 1353               	.LBB60:
 1354               	.LBB61:
 1355               	.LM128:
 1356 06f4 8CE0      		ldi r24,lo8(12)
 1357 06f6 8093 6900 		sts 105,r24
 1358               	.LBE61:
 1359               	.LBE60:
 1360               	.LBB63:
 1361               	.LBB64:
 1362               	.LBB65:
 1363               	.LBB66:
 1364               	.LM129:
 1365 06fa C8EC      		ldi r28,lo8(200)
 1366 06fc D0E0      		ldi r29,hi8(200)
 1367 06fe 00C0      		rjmp .L68
 1368               	.LVL28:
 1369               	.L70:
 1370               	.LBE66:
 1371               	.LBE65:
 1372               	.LBE64:
 1373               	.LBE63:
 1374               	.LBB70:
 1375               	.LBB62:
 1376               	.LM130:
 1377 0700 88E8      		ldi r24,lo8(5000)
 1378 0702 93E1      		ldi r25,hi8(5000)
 1379               	.LVL29:
 1380               	.L69:
 1381               	.LBE62:
 1382               	.LBE70:
 1383               	.LBB71:
 1384               	.LBB69:
 1385               	.LBB68:
 1386               	.LBB67:
 1387               	.LM131:
 1388 0704 FE01      		movw r30,r28
 1389               	.LVL30:
 1390               	/* #APP */
 1391               	 ;  105 "c:/winavr-20100110/lib/gcc/../../avr/include/util/delay_basic.h" 1
 1392 0706 3197      		1: sbiw r30,1
 1393 0708 01F4      		brne 1b
 1394               	 ;  0 "" 2
 1395               	/* #NOAPP */
 1396               	.LBE67:
 1397               	.LBE68:
 1398               	.LM132:
 1399 070a 0197      		sbiw r24,1
 1400               	.LM133:
 1401 070c 01F4      		brne .L69
 1402               	.LVL31:
 1403               	.L68:
 1404               	.LBE69:
 1405               	.LBE71:
 1406               	.LM134:
 1407 070e 80E8      		ldi r24,lo8(-128)
 1408               	.LVL32:
 1409 0710 00D0      		rcall StartFun
 1410               	.LVL33:
 1411 0712 892B      		or r24,r25
 1412 0714 01F0      		breq .L70
 1413               	.LBB72:
 1414               	.LBB73:
 1415               	.LBB74:
 1416               	.LBB75:
 1417               	.LM135:
 1418 0716 C8EC      		ldi r28,lo8(200)
 1419 0718 D0E0      		ldi r29,hi8(200)
 1420               	.L80:
 1421               	.LBE75:
 1422               	.LBE74:
 1423               	.LBE73:
 1424               	.LBE72:
 1425               	.LM136:
 1426 071a 8091 0000 		lds r24,stall
 1427 071e 8823      		tst r24
 1428 0720 01F0      		breq .L80
 1429 0722 00C0      		rjmp .L79
 1430               	.L81:
 1431 0724 88E8      		ldi r24,lo8(5000)
 1432 0726 93E1      		ldi r25,hi8(5000)
 1433               	.LVL34:
 1434               	.L73:
 1435               	.LBB79:
 1436               	.LBB78:
 1437               	.LBB77:
 1438               	.LBB76:
 1439               	.LM137:
 1440 0728 FE01      		movw r30,r28
 1441               	.LVL35:
 1442               	/* #APP */
 1443               	 ;  105 "c:/winavr-20100110/lib/gcc/../../avr/include/util/delay_basic.h" 1
 1444 072a 3197      		1: sbiw r30,1
 1445 072c 01F4      		brne 1b
 1446               	 ;  0 "" 2
 1447               	/* #NOAPP */
 1448               	.LBE76:
 1449               	.LBE77:
 1450               	.LM138:
 1451 072e 0197      		sbiw r24,1
 1452               	.LM139:
 1453 0730 01F4      		brne .L73
 1454               	.L79:
 1455               	.LBE78:
 1456               	.LBE79:
 1457               	.LM140:
 1458 0732 80E8      		ldi r24,lo8(-128)
 1459               	.LVL36:
 1460 0734 00D0      		rcall StartFun
 1461               	.LVL37:
 1462 0736 892B      		or r24,r25
 1463 0738 01F4      		brne .L80
 1464 073a 00C0      		rjmp .L81
 1465               	.LFE20:
 1467               	.global	tmpbuf
 1468               	.global	tmpbuf
 1469               		.section .bss
 1472               	tmpbuf:
 1473 0000 0000 0000 		.skip 16,0
 1473      0000 0000 
 1473      0000 0000 
 1473      0000 0000 
 1474               	.global	StateLoTable
 1475               	.global	StateLoTable
 1478               	StateLoTable:
 1479 0010 0000 0000 		.skip 16,0
 1479      0000 0000 
 1479      0000 0000 
 1479      0000 0000 
 1480               	.global	VelInte
 1481               	.global	VelInte
 1484               	VelInte:
 1485 0020 0000      		.skip 2,0
 1486               	.global	LastValue
 1487               	.global	LastValue
 1490               	LastValue:
 1491 0022 0000      		.skip 2,0
 1492               	.global	stall
 1493               	.global	stall
 1496               	stall:
 1497 0024 00        		.skip 1,0
 1498               	.global	speed
 1499               	.global	speed
 1502               	speed:
 1503 0025 0000      		.skip 2,0
 1504               	.global	dir
 1505               	.global	dir
 1508               	dir:
 1509 0027 00        		.skip 1,0
 1510               	.global	Kp
 1511               		.data
 1514               	Kp:
 1515 0000 33        		.byte	51
 1516 0001 33        		.byte	51
 1517 0002 33        		.byte	51
 1518 0003 3F        		.byte	63
 1519               	.global	Ki
 1522               	Ki:
 1523 0004 CD        		.byte	-51
 1524 0005 CC        		.byte	-52
 1525 0006 CC        		.byte	-52
 1526 0007 3E        		.byte	62
 1527               	.global	Kd
 1530               	Kd:
 1531 0008 6F        		.byte	111
 1532 0009 12        		.byte	18
 1533 000a 83        		.byte	-125
 1534 000b 3B        		.byte	59
 1535               	.global	len
 1536               	.global	len
 1537               		.section .bss
 1540               	len:
 1541 0028 00        		.skip 1,0
 1542               	.global	flag
 1543               	.global	flag
 1546               	flag:
 1547 0029 00        		.skip 1,0
 1548               	.global	sp
 1549               	.global	sp
 1552               	sp:
 1553 002a 0000      		.skip 2,0
 1554               	.global	value
 1555               	.global	value
 1558               	value:
 1559 002c 0000      		.skip 2,0
 1560               	.global	sBuf
 1561               	.global	sBuf
 1564               	sBuf:
 1565 002e 0000 00   		.skip 3,0
 1566               	.global	times
 1567               	.global	times
 1570               	times:
 1571 0031 00        		.skip 1,0
 1572               		.comm sptr,2,1
 1693               	.Letext0:
DEFINED SYMBOLS
                            *ABS*:00000000 main.c
C:\Users\ADMINI~1\AppData\Local\Temp/ccjJ6CWq.s:2      *ABS*:0000003f __SREG__
C:\Users\ADMINI~1\AppData\Local\Temp/ccjJ6CWq.s:3      *ABS*:0000003e __SP_H__
C:\Users\ADMINI~1\AppData\Local\Temp/ccjJ6CWq.s:4      *ABS*:0000003d __SP_L__
C:\Users\ADMINI~1\AppData\Local\Temp/ccjJ6CWq.s:5      *ABS*:00000034 __CCP__
C:\Users\ADMINI~1\AppData\Local\Temp/ccjJ6CWq.s:6      *ABS*:00000000 __tmp_reg__
C:\Users\ADMINI~1\AppData\Local\Temp/ccjJ6CWq.s:7      *ABS*:00000001 __zero_reg__
C:\Users\ADMINI~1\AppData\Local\Temp/ccjJ6CWq.s:18     .text:00000000 PortInit
C:\Users\ADMINI~1\AppData\Local\Temp/ccjJ6CWq.s:53     .text:0000001e IncPIDInit
C:\Users\ADMINI~1\AppData\Local\Temp/ccjJ6CWq.s:100    .text:00000056 IncPIDCalc
C:\Users\ADMINI~1\AppData\Local\Temp/ccjJ6CWq.s:1514   .data:00000000 Kp
C:\Users\ADMINI~1\AppData\Local\Temp/ccjJ6CWq.s:1522   .data:00000004 Ki
C:\Users\ADMINI~1\AppData\Local\Temp/ccjJ6CWq.s:1530   .data:00000008 Kd
C:\Users\ADMINI~1\AppData\Local\Temp/ccjJ6CWq.s:209    .text:00000118 I1Init
C:\Users\ADMINI~1\AppData\Local\Temp/ccjJ6CWq.s:224    .text:00000120 PCInit
C:\Users\ADMINI~1\AppData\Local\Temp/ccjJ6CWq.s:248    .text:00000136 T0Init
C:\Users\ADMINI~1\AppData\Local\Temp/ccjJ6CWq.s:271    .text:00000148 T2Init
C:\Users\ADMINI~1\AppData\Local\Temp/ccjJ6CWq.s:292    .text:0000015c __vector_13
C:\Users\ADMINI~1\AppData\Local\Temp/ccjJ6CWq.s:1552   .bss:0000002a sp
C:\Users\ADMINI~1\AppData\Local\Temp/ccjJ6CWq.s:1502   .bss:00000025 speed
                            *COM*:00000002 sptr
C:\Users\ADMINI~1\AppData\Local\Temp/ccjJ6CWq.s:1570   .bss:00000031 times
C:\Users\ADMINI~1\AppData\Local\Temp/ccjJ6CWq.s:1490   .bss:00000022 LastValue
C:\Users\ADMINI~1\AppData\Local\Temp/ccjJ6CWq.s:1484   .bss:00000020 VelInte
C:\Users\ADMINI~1\AppData\Local\Temp/ccjJ6CWq.s:1496   .bss:00000024 stall
C:\Users\ADMINI~1\AppData\Local\Temp/ccjJ6CWq.s:433    .text:00000282 __vector_2
C:\Users\ADMINI~1\AppData\Local\Temp/ccjJ6CWq.s:463    .text:000002b0 commut
C:\Users\ADMINI~1\AppData\Local\Temp/ccjJ6CWq.s:1508   .bss:00000027 dir
C:\Users\ADMINI~1\AppData\Local\Temp/ccjJ6CWq.s:1021   .text:00000530 StartFun
C:\Users\ADMINI~1\AppData\Local\Temp/ccjJ6CWq.s:1164   .text:000005f8 __vector_4
C:\Users\ADMINI~1\AppData\Local\Temp/ccjJ6CWq.s:1219   .text:00000654 main
C:\Users\ADMINI~1\AppData\Local\Temp/ccjJ6CWq.s:1472   .bss:00000000 tmpbuf
C:\Users\ADMINI~1\AppData\Local\Temp/ccjJ6CWq.s:1478   .bss:00000010 StateLoTable
C:\Users\ADMINI~1\AppData\Local\Temp/ccjJ6CWq.s:1540   .bss:00000028 len
C:\Users\ADMINI~1\AppData\Local\Temp/ccjJ6CWq.s:1546   .bss:00000029 flag
C:\Users\ADMINI~1\AppData\Local\Temp/ccjJ6CWq.s:1558   .bss:0000002c value
C:\Users\ADMINI~1\AppData\Local\Temp/ccjJ6CWq.s:1564   .bss:0000002e sBuf

UNDEFINED SYMBOLS
__floatsisf
__mulsf3
__subsf3
__addsf3
__fixsfsi
malloc
__do_copy_data
__do_clear_bss
